(dp0
S'Mu50_OR_TkMu50_PtEtaBins'
p1
(dp2
S'pt_abseta_ratio'
p3
(dp4
S'pt:[80.0,120.0]'
p5
(dp6
S'abseta:[0.0,0.9]'
p7
(dp8
S'value'
p9
F0.9891740679740906
sS'error'
p10
F0.0017327622101618251
ssS'abseta:[1.2,2.1]'
p11
(dp12
g9
F0.9993314146995544
sg10
F0.0030150238938479734
ssS'abseta:[2.1,2.4]'
p13
(dp14
g9
F0.9586573839187622
sg10
F0.008337349929979712
ssS'abseta:[0.9,1.2]'
p15
(dp16
g9
F0.9657415151596069
sg10
F0.003115449500431237
sssS'pt:[120.0,200.0]'
p17
(dp18
S'abseta:[0.0,0.9]'
p19
(dp20
g9
F0.9805535078048706
sg10
F0.003406985720325693
ssS'abseta:[1.2,2.1]'
p21
(dp22
g9
F1.0055807828903198
sg10
F0.006260299290162109
ssS'abseta:[2.1,2.4]'
p23
(dp24
g9
F0.9803701639175415
sg10
F0.018783825780858385
ssS'abseta:[0.9,1.2]'
p25
(dp26
g9
F0.9524330496788025
sg10
F0.006143729338906836
sssS'pt:[400.0,800.0]'
p27
(dp28
S'abseta:[0.0,0.9]'
p29
(dp30
g9
F0.9738991856575012
sg10
F0.04717621597306824
ssS'abseta:[1.2,2.1]'
p31
(dp32
g9
F1.0064843893051147
sg10
F0.07763548115348348
ssS'abseta:[2.1,2.4]'
p33
(dp34
g9
F0.6667230725288391
sg10
F0.6449829307556778
ssS'abseta:[0.9,1.2]'
p35
(dp36
g9
F0.9752179980278015
sg10
F0.06264186912879764
sssS'pt:[55.0,60.0]'
p37
(dp38
S'abseta:[0.0,0.9]'
p39
(dp40
g9
F0.99277263879776
sg10
F0.0008940336579180047
ssS'abseta:[1.2,2.1]'
p41
(dp42
g9
F1.0033336877822876
sg10
F0.001559964929788577
ssS'abseta:[2.1,2.4]'
p43
(dp44
g9
F0.9607570171356201
sg10
F0.004045533168915689
ssS'abseta:[0.9,1.2]'
p45
(dp46
g9
F0.9728033542633057
sg10
F0.0013007197628295151
sssS'pt:[52.0,55.0]'
p47
(dp48
S'abseta:[0.0,0.9]'
p49
(dp50
g9
F0.9928286671638489
sg10
F0.0008560823903361076
ssS'abseta:[1.2,2.1]'
p51
(dp52
g9
F1.0012491941452026
sg10
F0.0014756963186867878
ssS'abseta:[2.1,2.4]'
p53
(dp54
g9
F0.9547792673110962
sg10
F0.004021372048066045
ssS'abseta:[0.9,1.2]'
p55
(dp56
g9
F0.9710158705711365
sg10
F0.000830136394401782
sssS'pt:[60.0,80.0]'
p57
(dp58
S'abseta:[0.0,0.9]'
p59
(dp60
g9
F0.9916008114814758
sg10
F0.0008045181851580982
ssS'abseta:[1.2,2.1]'
p61
(dp62
g9
F1.003668189048767
sg10
F0.0014086095393322446
ssS'abseta:[2.1,2.4]'
p63
(dp64
g9
F0.962228000164032
sg10
F0.0037153073729755963
ssS'abseta:[0.9,1.2]'
p65
(dp66
g9
F0.9704875349998474
sg10
F0.0011589928754562769
sssS'pt:[200.0,300.0]'
p67
(dp68
S'abseta:[0.0,0.9]'
p69
(dp70
g9
F0.992956817150116
sg10
F0.009989400298481574
ssS'abseta:[1.2,2.1]'
p71
(dp72
g9
F0.9835214614868164
sg10
F0.015799485337548776
ssS'abseta:[2.1,2.4]'
p73
(dp74
g9
F0.8878142237663269
sg10
F0.07232279267293545
ssS'abseta:[0.9,1.2]'
p75
(dp76
g9
F0.9763172268867493
sg10
F0.016820330906311475
sssS'pt:[300.0,400.0]'
p77
(dp78
S'abseta:[0.0,0.9]'
p79
(dp80
g9
F1.0067905187606812
sg10
F0.025138868314645128
ssS'abseta:[1.2,2.1]'
p81
(dp82
g9
F1.0684549808502197
sg10
F0.046547647335047126
ssS'abseta:[2.1,2.4]'
p83
(dp84
g9
F0.8017706274986267
sg10
F0.14828415253683283
ssS'abseta:[0.9,1.2]'
p85
(dp86
g9
F0.9820883870124817
sg10
F0.04832663497311881
ssssS'abseta_pt_ratio'
p87
(dp88
S'abseta:[0.0,0.9]'
p89
(dp90
S'pt:[80.0,120.0]'
p91
(dp92
g9
F0.9891740679740906
sg10
F0.0017327622101618251
ssS'pt:[120.0,200.0]'
p93
(dp94
g9
F0.9805535078048706
sg10
F0.003406985720325693
ssS'pt:[400.0,800.0]'
p95
(dp96
g9
F0.9738991856575012
sg10
F0.04717621597306824
ssS'pt:[55.0,60.0]'
p97
(dp98
g9
F0.99277263879776
sg10
F0.0008940336579180047
ssS'pt:[52.0,55.0]'
p99
(dp100
g9
F0.9928286671638489
sg10
F0.0008560823903361076
ssS'pt:[60.0,80.0]'
p101
(dp102
g9
F0.9916008114814758
sg10
F0.0008045181851580982
ssS'pt:[200.0,300.0]'
p103
(dp104
g9
F0.992956817150116
sg10
F0.009989400298481574
ssS'pt:[300.0,400.0]'
p105
(dp106
g9
F1.0067905187606812
sg10
F0.025138868314645128
sssS'abseta:[1.2,2.1]'
p107
(dp108
S'pt:[80.0,120.0]'
p109
(dp110
g9
F0.9993314146995544
sg10
F0.0030150238938479734
ssS'pt:[120.0,200.0]'
p111
(dp112
g9
F1.0055807828903198
sg10
F0.006260299290162109
ssS'pt:[400.0,800.0]'
p113
(dp114
g9
F1.0064843893051147
sg10
F0.07763548115348348
ssS'pt:[55.0,60.0]'
p115
(dp116
g9
F1.0033336877822876
sg10
F0.001559964929788577
ssS'pt:[52.0,55.0]'
p117
(dp118
g9
F1.0012491941452026
sg10
F0.0014756963186867878
ssS'pt:[60.0,80.0]'
p119
(dp120
g9
F1.003668189048767
sg10
F0.0014086095393322446
ssS'pt:[200.0,300.0]'
p121
(dp122
g9
F0.9835214614868164
sg10
F0.015799485337548776
ssS'pt:[300.0,400.0]'
p123
(dp124
g9
F1.0684549808502197
sg10
F0.046547647335047126
sssS'abseta:[2.1,2.4]'
p125
(dp126
S'pt:[80.0,120.0]'
p127
(dp128
g9
F0.9586573839187622
sg10
F0.008337349929979712
ssS'pt:[120.0,200.0]'
p129
(dp130
g9
F0.9803701639175415
sg10
F0.018783825780858385
ssS'pt:[400.0,800.0]'
p131
(dp132
g9
F0.6667230725288391
sg10
F0.6449829307556778
ssS'pt:[55.0,60.0]'
p133
(dp134
g9
F0.9607570171356201
sg10
F0.004045533168915689
ssS'pt:[52.0,55.0]'
p135
(dp136
g9
F0.9547792673110962
sg10
F0.004021372048066045
ssS'pt:[60.0,80.0]'
p137
(dp138
g9
F0.962228000164032
sg10
F0.0037153073729755963
ssS'pt:[200.0,300.0]'
p139
(dp140
g9
F0.8878142237663269
sg10
F0.07232279267293545
ssS'pt:[300.0,400.0]'
p141
(dp142
g9
F0.8017706274986267
sg10
F0.14828415253683283
sssS'abseta:[0.9,1.2]'
p143
(dp144
S'pt:[80.0,120.0]'
p145
(dp146
g9
F0.9657415151596069
sg10
F0.003115449500431237
ssS'pt:[120.0,200.0]'
p147
(dp148
g9
F0.9524330496788025
sg10
F0.006143729338906836
ssS'pt:[400.0,800.0]'
p149
(dp150
g9
F0.9752179980278015
sg10
F0.06264186912879764
ssS'pt:[55.0,60.0]'
p151
(dp152
g9
F0.9728033542633057
sg10
F0.0013007197628295151
ssS'pt:[52.0,55.0]'
p153
(dp154
g9
F0.9710158705711365
sg10
F0.000830136394401782
ssS'pt:[60.0,80.0]'
p155
(dp156
g9
F0.9704875349998474
sg10
F0.0011589928754562769
ssS'pt:[200.0,300.0]'
p157
(dp158
g9
F0.9763172268867493
sg10
F0.016820330906311475
ssS'pt:[300.0,400.0]'
p159
(dp160
g9
F0.9820883870124817
sg10
F0.04832663497311881
sssssS'IsoMu24_OR_IsoTkMu24_PtEtaBins'
p161
(dp162
S'pt_abseta_ratio'
p163
(dp164
S'pt:[30.0,40.0]'
p165
(dp166
S'abseta:[0.0,0.9]'
p167
(dp168
g9
F0.9910475015640259
sg10
F0.00033384056784941903
ssS'abseta:[1.2,2.1]'
p169
(dp170
g9
F0.9965498447418213
sg10
F0.0006317211515721738
ssS'abseta:[2.1,2.4]'
p171
(dp172
g9
F0.9486344456672668
sg10
F0.0014192255290904172
ssS'abseta:[0.9,1.2]'
p173
(dp174
g9
F0.9718958139419556
sg10
F0.0005804553092205542
sssS'pt:[26.0,30.0]'
p175
(dp176
S'abseta:[0.0,0.9]'
p177
(dp178
g9
F0.9869807362556458
sg10
F0.0010367296534039279
ssS'abseta:[1.2,2.1]'
p179
(dp180
g9
F0.9839195609092712
sg10
F0.001903168036651809
ssS'abseta:[2.1,2.4]'
p181
(dp182
g9
F0.9138849377632141
sg10
F0.004035065141813026
ssS'abseta:[0.9,1.2]'
p183
(dp184
g9
F0.9628402590751648
sg10
F0.002332053828065074
sssS'pt:[60.0,120.0]'
p185
(dp186
S'abseta:[0.0,0.9]'
p187
(dp188
g9
F0.9932432770729065
sg10
F0.0008285981939055742
ssS'abseta:[1.2,2.1]'
p189
(dp190
g9
F1.0031641721725464
sg10
F0.001450983697866551
ssS'abseta:[2.1,2.4]'
p191
(dp192
g9
F0.9627843499183655
sg10
F0.0037436150274704452
ssS'abseta:[0.9,1.2]'
p193
(dp194
g9
F0.9709482192993164
sg10
F0.0015313780212260835
sssS'pt:[120.0,200.0]'
p195
(dp196
S'abseta:[0.0,0.9]'
p197
(dp198
g9
F0.9813925623893738
sg10
F0.0040373365279612215
ssS'abseta:[1.2,2.1]'
p199
(dp200
g9
F1.0050915479660034
sg10
F0.0066083877935644774
ssS'abseta:[2.1,2.4]'
p201
(dp202
g9
F0.9831149578094482
sg10
F0.02337452284457453
ssS'abseta:[0.9,1.2]'
p203
(dp204
g9
F0.9544392824172974
sg10
F0.004843094722237152
sssS'pt:[200.0,500.0]'
p205
(dp206
S'abseta:[0.0,0.9]'
p207
(dp208
g9
F0.9938938021659851
sg10
F0.009838154592979265
ssS'abseta:[1.2,2.1]'
p209
(dp210
g9
F0.9984261393547058
sg10
F0.018870665504796623
ssS'abseta:[2.1,2.4]'
p211
(dp212
g9
F0.9359486103057861
sg10
F0.06148384837918422
ssS'abseta:[0.9,1.2]'
p213
(dp214
g9
F0.9771283268928528
sg10
F0.0146588187607852
sssS'pt:[50.0,60.0]'
p215
(dp216
S'abseta:[0.0,0.9]'
p217
(dp218
g9
F0.992017924785614
sg10
F0.0005595740669750601
ssS'abseta:[1.2,2.1]'
p219
(dp220
g9
F1.0024102926254272
sg10
F0.0008988668944692867
ssS'abseta:[2.1,2.4]'
p221
(dp222
g9
F0.967069149017334
sg10
F0.0023472448988226913
ssS'abseta:[0.9,1.2]'
p223
(dp224
g9
F0.9753977060317993
sg10
F0.0007663329448932586
sssS'pt:[40.0,50.0]'
p225
(dp226
S'abseta:[0.0,0.9]'
p227
(dp228
g9
F0.9925955533981323
sg10
F0.00025684990570774754
ssS'abseta:[1.2,2.1]'
p229
(dp230
g9
F1.002132534980774
sg10
F0.0004362327724914821
ssS'abseta:[2.1,2.4]'
p231
(dp232
g9
F0.9629637598991394
sg10
F0.0011255368180366698
ssS'abseta:[0.9,1.2]'
p233
(dp234
g9
F0.9746044278144836
sg10
F0.0003811936288051262
ssssS'abseta_pt_ratio'
p235
(dp236
S'abseta:[0.0,0.9]'
p237
(dp238
S'pt:[30.0,40.0]'
p239
(dp240
g9
F0.9910475015640259
sg10
F0.00033384056784941903
ssS'pt:[26.0,30.0]'
p241
(dp242
g9
F0.9869807362556458
sg10
F0.0010367296534039279
ssS'pt:[60.0,120.0]'
p243
(dp244
g9
F0.9932432770729065
sg10
F0.0008285981939055742
ssS'pt:[120.0,200.0]'
p245
(dp246
g9
F0.9813925623893738
sg10
F0.0040373365279612215
ssS'pt:[200.0,500.0]'
p247
(dp248
g9
F0.9938938021659851
sg10
F0.009838154592979265
ssS'pt:[50.0,60.0]'
p249
(dp250
g9
F0.992017924785614
sg10
F0.0005595740669750601
ssS'pt:[40.0,50.0]'
p251
(dp252
g9
F0.9925955533981323
sg10
F0.00025684990570774754
sssS'abseta:[1.2,2.1]'
p253
(dp254
S'pt:[30.0,40.0]'
p255
(dp256
g9
F0.9965498447418213
sg10
F0.0006317211515721738
ssS'pt:[26.0,30.0]'
p257
(dp258
g9
F0.9839195609092712
sg10
F0.001903168036651809
ssS'pt:[60.0,120.0]'
p259
(dp260
g9
F1.0031641721725464
sg10
F0.001450983697866551
ssS'pt:[120.0,200.0]'
p261
(dp262
g9
F1.0050915479660034
sg10
F0.0066083877935644774
ssS'pt:[200.0,500.0]'
p263
(dp264
g9
F0.9984261393547058
sg10
F0.018870665504796623
ssS'pt:[50.0,60.0]'
p265
(dp266
g9
F1.0024102926254272
sg10
F0.0008988668944692867
ssS'pt:[40.0,50.0]'
p267
(dp268
g9
F1.002132534980774
sg10
F0.0004362327724914821
sssS'abseta:[2.1,2.4]'
p269
(dp270
S'pt:[30.0,40.0]'
p271
(dp272
g9
F0.9486344456672668
sg10
F0.0014192255290904172
ssS'pt:[26.0,30.0]'
p273
(dp274
g9
F0.9138849377632141
sg10
F0.004035065141813026
ssS'pt:[60.0,120.0]'
p275
(dp276
g9
F0.9627843499183655
sg10
F0.0037436150274704452
ssS'pt:[120.0,200.0]'
p277
(dp278
g9
F0.9831149578094482
sg10
F0.02337452284457453
ssS'pt:[200.0,500.0]'
p279
(dp280
g9
F0.9359486103057861
sg10
F0.06148384837918422
ssS'pt:[50.0,60.0]'
p281
(dp282
g9
F0.967069149017334
sg10
F0.0023472448988226913
ssS'pt:[40.0,50.0]'
p283
(dp284
g9
F0.9629637598991394
sg10
F0.0011255368180366698
sssS'abseta:[0.9,1.2]'
p285
(dp286
S'pt:[30.0,40.0]'
p287
(dp288
g9
F0.9718958139419556
sg10
F0.0005804553092205542
ssS'pt:[26.0,30.0]'
p289
(dp290
g9
F0.9628402590751648
sg10
F0.002332053828065074
ssS'pt:[60.0,120.0]'
p291
(dp292
g9
F0.9709482192993164
sg10
F0.0015313780212260835
ssS'pt:[120.0,200.0]'
p293
(dp294
g9
F0.9544392824172974
sg10
F0.004843094722237152
ssS'pt:[200.0,500.0]'
p295
(dp296
g9
F0.9771283268928528
sg10
F0.0146588187607852
ssS'pt:[50.0,60.0]'
p297
(dp298
g9
F0.9753977060317993
sg10
F0.0007663329448932586
ssS'pt:[40.0,50.0]'
p299
(dp300
g9
F0.9746044278144836
sg10
F0.0003811936288051262
sssssS'Mu50_OR_TkMu50_EtaBins'
p301
(dp302
S'eta_ratio'
p303
(dp304
S'eta:[-0.2,0.0]'
p305
(dp306
g9
F0.9909339547157288
sg10
F0.00120242218993292
ssS'eta:[0.2,0.3]'
p307
(dp308
g9
F0.9688661694526672
sg10
F0.0031254916234534596
ssS'eta:[-2.4,-2.1]'
p309
(dp310
g9
F0.9727431535720825
sg10
F0.0031678625241943503
ssS'eta:[0.9,1.2]'
p311
(dp312
g9
F0.9688891172409058
sg10
F0.0009633856783766245
ssS'eta:[0.3,0.9]'
p313
(dp314
g9
F0.9936291575431824
sg10
F0.0007780693033374439
ssS'eta:[-0.9,-0.3]'
p315
(dp316
g9
F0.9975961446762085
sg10
F0.0007601520329930455
ssS'eta:[0.0,0.2]'
p317
(dp318
g9
F0.9903135299682617
sg10
F0.0011814908030792707
ssS'eta:[-1.2,-0.9]'
p319
(dp320
g9
F0.9730134010314941
sg10
F0.0009628811809112978
ssS'eta:[2.1,2.4]'
p321
(dp322
g9
F0.9467098712921143
sg10
F0.002977562339691866
ssS'eta:[-1.6,-1.2]'
p323
(dp324
g9
F1.0448753833770752
sg10
F0.0014576143840048866
ssS'eta:[1.2,1.6]'
p325
(dp326
g9
F1.0302610397338867
sg10
F0.0014525951985386253
ssS'eta:[-2.1,-1.6]'
p327
(dp328
g9
F0.967978298664093
sg10
F0.00185867353831009
ssS'eta:[-0.3,-0.2]'
p329
(dp330
g9
F0.9660621881484985
sg10
F0.003098804993906926
ssS'eta:[1.6,2.1]'
p331
(dp332
g9
F0.9598366022109985
sg10
F0.0017008897083404916
ssssS'IsoMu24_OR_IsoTkMu24_PtBins'
p333
(dp334
S'pt_ratio'
p335
(dp336
S'pt:[22.0,24.0]'
p337
(dp338
g9
F1.0714150667190552
sg10
F0.01949793839950627
ssS'pt:[18.0,22.0]'
p339
(dp340
g9
F0.82505863904953
sg10
F0.1689276225066777
ssS'pt:[120.0,200.0]'
p341
(dp342
g9
F0.987001359462738
sg10
F0.002869476360928731
ssS'pt:[15.0,18.0]'
p343
(dp344
g9
F1.6684818267822266
sg10
F2.995949894917847
ssS'pt:[10.0,15.0]'
p345
(dp346
g9
F0.0
sg10
F0.0
ssS'pt:[80.0,120.0]'
p347
(dp348
g9
F0.9895843863487244
sg10
F0.0014473310979688978
ssS'pt:[26.0,30.0]'
p349
(dp350
g9
F0.9752310514450073
sg10
F0.0007025237039748999
ssS'pt:[30.0,40.0]'
p351
(dp352
g9
F0.9868544340133667
sg10
F0.00027017030713904843
ssS'pt:[24.0,26.0]'
p353
(dp354
g9
F0.954674482345581
sg10
F0.001420416643746039
ssS'pt:[200.0,500.0]'
p355
(dp356
g9
F0.9925020933151245
sg10
F0.007282976003955405
ssS'pt:[60.0,80.0]'
p357
(dp358
g9
F0.9924092292785645
sg10
F0.0007044247530598749
ssS'pt:[50.0,60.0]'
p359
(dp360
g9
F0.9928675293922424
sg10
F0.0004395781296163409
ssS'pt:[0.0,10.0]'
p361
(dp362
g9
F0.0
sg10
F0.0
ssS'pt:[40.0,50.0]'
p363
(dp364
g9
F0.9919115304946899
sg10
F0.00020929553038320263
ssssS'IsoMu24_OR_IsoTkMu24_EtaBins'
p365
(dp366
S'eta_ratio'
p367
(dp368
S'eta:[-0.2,0.0]'
p369
(dp370
g9
F0.9892260432243347
sg10
F0.0005077978210069064
ssS'eta:[0.2,0.3]'
p371
(dp372
g9
F0.9698999524116516
sg10
F0.0011484527970636242
ssS'eta:[-2.4,-2.1]'
p373
(dp374
g9
F0.9643732309341431
sg10
F0.0011547218877382092
ssS'eta:[0.9,1.2]'
p375
(dp376
g9
F0.9705824851989746
sg10
F0.0004171062343680276
ssS'eta:[0.3,0.9]'
p377
(dp378
g9
F0.995106041431427
sg10
F0.00031700752071903187
ssS'eta:[-0.9,-0.3]'
p379
(dp380
g9
F0.9972392320632935
sg10
F0.000311353949576662
ssS'eta:[0.0,0.2]'
p381
(dp382
g9
F0.9860682487487793
sg10
F0.0005051992935485439
ssS'eta:[-1.2,-0.9]'
p383
(dp384
g9
F0.9748698472976685
sg10
F0.00042526029813748855
ssS'eta:[2.1,2.4]'
p385
(dp386
g9
F0.9440276026725769
sg10
F0.0011023079510104345
ssS'eta:[-1.6,-1.2]'
p387
(dp388
g9
F1.0416207313537598
sg10
F0.000599884973581202
ssS'eta:[1.2,1.6]'
p389
(dp390
g9
F1.025447964668274
sg10
F0.0005952844415346084
ssS'eta:[-2.1,-1.6]'
p391
(dp392
g9
F0.9675869345664978
sg10
F0.0007279887349385583
ssS'eta:[-0.3,-0.2]'
p393
(dp394
g9
F0.9653128385543823
sg10
F0.0011261228521763308
ssS'eta:[1.6,2.1]'
p395
(dp396
g9
F0.9582330584526062
sg10
F0.0006638975971201885
ssssS'Mu50_OR_TkMu50_PtBins'
p397
(dp398
S'pt_ratio'
p399
(dp400
S'pt:[120.0,200.0]'
p401
(dp402
g9
F0.9855331182479858
sg10
F0.0028476034343896377
ssS'pt:[25.0,30.0]'
p403
(dp404
g9
F1.3447620868682861
sg10
F0.22308465300479863
ssS'pt:[30.0,40.0]'
p405
(dp406
g9
F1.249166488647461
sg10
F0.04422183106049938
ssS'pt:[80.0,120.0]'
p407
(dp408
g9
F0.9884259104728699
sg10
F0.0014175452675182745
ssS'pt:[10.0,15.0]'
p409
(dp410
g9
F0.0
sg10
F0.0
ssS'pt:[400.0,800.0]'
p411
(dp412
g9
F0.9800455570220947
sg10
F0.03321702214364258
ssS'pt:[55.0,60.0]'
p413
(dp414
g9
F0.9924461245536804
sg10
F0.000753376693229391
ssS'pt:[45.0,48.0]'
p415
(dp416
g9
F1.4711828231811523
sg10
F0.023884731689996615
ssS'pt:[52.0,55.0]'
p417
(dp418
g9
F0.9913392663002014
sg10
F0.0007200870977530769
ssS'pt:[0.0,10.0]'
p419
(dp420
g9
F0.0
sg10
F0.0
ssS'pt:[50.0,52.0]'
p421
(dp422
g9
F0.9673654437065125
sg10
F0.000911642701703922
ssS'pt:[40.0,45.0]'
p423
(dp424
g9
F1.4022597074508667
sg10
F0.028097134565492395
ssS'pt:[60.0,80.0]'
p425
(dp426
g9
F0.9918941259384155
sg10
F0.0006735391701012542
ssS'pt:[20.0,25.0]'
p427
(dp428
g9
F0.9031009674072266
sg10
F0.34418505377447
ssS'pt:[200.0,300.0]'
p429
(dp430
g9
F0.9857909679412842
sg10
F0.007834105131714874
ssS'pt:[48.0,50.0]'
p431
(dp432
g9
F1.1721458435058594
sg10
F0.007399067288327518
ssS'pt:[300.0,400.0]'
p433
(dp434
g9
F1.0228992700576782
sg10
F0.0205544590159108
ssS'pt:[15.0,20.0]'
p435
(dp436
g9
F0.7940927743911743
sg10
F0.7178861836528931
ssss.