(dp0
S'Mu50_OR_TkMu50_PtEtaBins'
p1
(dp2
S'pt_abseta_ratio'
p3
(dp4
S'pt:[80.0,120.0]'
p5
(dp6
S'abseta:[0.0,0.9]'
p7
(dp8
S'value'
p9
F0.9704299569129944
sS'error'
p10
F0.002401377341860279
ssS'abseta:[1.2,2.1]'
p11
(dp12
g9
F0.9845044612884521
sg10
F0.00384033377351287
ssS'abseta:[2.1,2.4]'
p13
(dp14
g9
F0.9339132905006409
sg10
F0.011085686318394634
ssS'abseta:[0.9,1.2]'
p15
(dp16
g9
F0.943071722984314
sg10
F0.0033269671662709923
sssS'pt:[120.0,200.0]'
p17
(dp18
S'abseta:[0.0,0.9]'
p19
(dp20
g9
F0.9641650319099426
sg10
F0.003743024879956789
ssS'abseta:[1.2,2.1]'
p21
(dp22
g9
F0.9896620512008667
sg10
F0.008763157752016361
ssS'abseta:[2.1,2.4]'
p23
(dp24
g9
F0.9507884979248047
sg10
F0.03488610684814394
ssS'abseta:[0.9,1.2]'
p25
(dp26
g9
F0.930442214012146
sg10
F0.012606893170796496
sssS'pt:[400.0,800.0]'
p27
(dp28
S'abseta:[0.0,0.9]'
p29
(dp30
g9
F0.9573338627815247
sg10
F0.049922328822708764
ssS'abseta:[1.2,2.1]'
p31
(dp32
g9
F0.8182257413864136
sg10
F0.292340086516123
ssS'abseta:[2.1,2.4]'
p33
(dp34
g9
F0.7698265314102173
sg10
F1.31586194921172
ssS'abseta:[0.9,1.2]'
p35
(dp36
g9
F0.9756509065628052
sg10
F0.09198618803807095
sssS'pt:[55.0,60.0]'
p37
(dp38
S'abseta:[0.0,0.9]'
p39
(dp40
g9
F0.9725496172904968
sg10
F0.0009341779449572302
ssS'abseta:[1.2,2.1]'
p41
(dp42
g9
F0.9838188290596008
sg10
F0.0015850387913095287
ssS'abseta:[2.1,2.4]'
p43
(dp44
g9
F0.9124965667724609
sg10
F0.004106425662535256
ssS'abseta:[0.9,1.2]'
p45
(dp46
g9
F0.9459905624389648
sg10
F0.001441289639351295
sssS'pt:[52.0,55.0]'
p47
(dp48
S'abseta:[0.0,0.9]'
p49
(dp50
g9
F0.9638813734054565
sg10
F0.0008890706776478354
ssS'abseta:[1.2,2.1]'
p51
(dp52
g9
F0.9743547439575195
sg10
F0.0014676483861640354
ssS'abseta:[2.1,2.4]'
p53
(dp54
g9
F0.8857556581497192
sg10
F0.004020710824720559
ssS'abseta:[0.9,1.2]'
p55
(dp56
g9
F0.9380813837051392
sg10
F0.0012651804786038303
sssS'pt:[60.0,80.0]'
p57
(dp58
S'abseta:[0.0,0.9]'
p59
(dp60
g9
F0.9722144603729248
sg10
F0.0008982442325530416
ssS'abseta:[1.2,2.1]'
p61
(dp62
g9
F0.9858156442642212
sg10
F0.0014956859160539732
ssS'abseta:[2.1,2.4]'
p63
(dp64
g9
F0.9209174513816833
sg10
F0.004021660119589654
ssS'abseta:[0.9,1.2]'
p65
(dp66
g9
F0.9471078515052795
sg10
F0.0013160633386650167
sssS'pt:[200.0,300.0]'
p67
(dp68
S'abseta:[0.0,0.9]'
p69
(dp70
g9
F0.964304506778717
sg10
F0.009351168468975223
ssS'abseta:[1.2,2.1]'
p71
(dp72
g9
F0.9336079359054565
sg10
F0.027996548399927556
ssS'abseta:[2.1,2.4]'
p73
(dp74
g9
F0.7698265314102173
sg10
F0.255948432901523
ssS'abseta:[0.9,1.2]'
p75
(dp76
g9
F0.9165323972702026
sg10
F0.030938757524490188
sssS'pt:[300.0,400.0]'
p77
(dp78
S'abseta:[0.0,0.9]'
p79
(dp80
g9
F1.0039143562316895
sg10
F0.02304652010937399
ssS'abseta:[1.2,2.1]'
p81
(dp82
g9
F1.1692075729370117
sg10
F0.24881672879835287
ssS'abseta:[2.1,2.4]'
p83
(dp84
g9
F0.7698265314102173
sg10
F0.0
ssS'abseta:[0.9,1.2]'
p85
(dp86
g9
F0.9099929332733154
sg10
F0.05872215387147699
ssssS'abseta_pt_ratio'
p87
(dp88
S'abseta:[0.0,0.9]'
p89
(dp90
S'pt:[80.0,120.0]'
p91
(dp92
g9
F0.9704299569129944
sg10
F0.002401377341860279
ssS'pt:[120.0,200.0]'
p93
(dp94
g9
F0.9641650319099426
sg10
F0.003743024879956789
ssS'pt:[400.0,800.0]'
p95
(dp96
g9
F0.9573338627815247
sg10
F0.049922328822708764
ssS'pt:[55.0,60.0]'
p97
(dp98
g9
F0.9725496172904968
sg10
F0.0009341779449572302
ssS'pt:[52.0,55.0]'
p99
(dp100
g9
F0.9638813734054565
sg10
F0.0008890706776478354
ssS'pt:[60.0,80.0]'
p101
(dp102
g9
F0.9722144603729248
sg10
F0.0008982442325530416
ssS'pt:[200.0,300.0]'
p103
(dp104
g9
F0.964304506778717
sg10
F0.009351168468975223
ssS'pt:[300.0,400.0]'
p105
(dp106
g9
F1.0039143562316895
sg10
F0.02304652010937399
sssS'abseta:[1.2,2.1]'
p107
(dp108
S'pt:[80.0,120.0]'
p109
(dp110
g9
F0.9845044612884521
sg10
F0.00384033377351287
ssS'pt:[120.0,200.0]'
p111
(dp112
g9
F0.9896620512008667
sg10
F0.008763157752016361
ssS'pt:[400.0,800.0]'
p113
(dp114
g9
F0.8182257413864136
sg10
F0.292340086516123
ssS'pt:[55.0,60.0]'
p115
(dp116
g9
F0.9838188290596008
sg10
F0.0015850387913095287
ssS'pt:[52.0,55.0]'
p117
(dp118
g9
F0.9743547439575195
sg10
F0.0014676483861640354
ssS'pt:[60.0,80.0]'
p119
(dp120
g9
F0.9858156442642212
sg10
F0.0014956859160539732
ssS'pt:[200.0,300.0]'
p121
(dp122
g9
F0.9336079359054565
sg10
F0.027996548399927556
ssS'pt:[300.0,400.0]'
p123
(dp124
g9
F1.1692075729370117
sg10
F0.24881672879835287
sssS'abseta:[2.1,2.4]'
p125
(dp126
S'pt:[80.0,120.0]'
p127
(dp128
g9
F0.9339132905006409
sg10
F0.011085686318394634
ssS'pt:[120.0,200.0]'
p129
(dp130
g9
F0.9507884979248047
sg10
F0.03488610684814394
ssS'pt:[400.0,800.0]'
p131
(dp132
g9
F0.8182257413864136
sg10
F0.0
ssS'pt:[55.0,60.0]'
p133
(dp134
g9
F0.9124965667724609
sg10
F0.004106425662535256
ssS'pt:[52.0,55.0]'
p135
(dp136
g9
F0.8857556581497192
sg10
F0.004020710824720559
ssS'pt:[60.0,80.0]'
p137
(dp138
g9
F0.9209174513816833
sg10
F0.004021660119589654
ssS'pt:[200.0,300.0]'
p139
(dp140
g9
F0.7698265314102173
sg10
F0.255948432901523
ssS'pt:[300.0,400.0]'
p141
(dp142
g9
F1.1692075729370117
sg10
F0.0
sssS'abseta:[0.9,1.2]'
p143
(dp144
S'pt:[80.0,120.0]'
p145
(dp146
g9
F0.943071722984314
sg10
F0.0033269671662709923
ssS'pt:[120.0,200.0]'
p147
(dp148
g9
F0.930442214012146
sg10
F0.012606893170796496
ssS'pt:[400.0,800.0]'
p149
(dp150
g9
F0.9756509065628052
sg10
F0.09198618803807095
ssS'pt:[55.0,60.0]'
p151
(dp152
g9
F0.9459905624389648
sg10
F0.001441289639351295
ssS'pt:[52.0,55.0]'
p153
(dp154
g9
F0.9380813837051392
sg10
F0.0012651804786038303
ssS'pt:[60.0,80.0]'
p155
(dp156
g9
F0.9471078515052795
sg10
F0.0013160633386650167
ssS'pt:[200.0,300.0]'
p157
(dp158
g9
F0.9165323972702026
sg10
F0.030938757524490188
ssS'pt:[300.0,400.0]'
p159
(dp160
g9
F0.9099929332733154
sg10
F0.05872215387147699
sssssS'IsoMu24_OR_IsoTkMu24_PtEtaBins'
p161
(dp162
S'pt_abseta_ratio'
p163
(dp164
S'pt:[30.0,40.0]'
p165
(dp166
S'abseta:[0.0,0.9]'
p167
(dp168
g9
F0.9784002304077148
sg10
F0.0003229365043287514
ssS'abseta:[1.2,2.1]'
p169
(dp170
g9
F0.994604229927063
sg10
F0.000607720472996522
ssS'abseta:[2.1,2.4]'
p171
(dp172
g9
F0.9412131905555725
sg10
F0.001359540397357431
ssS'abseta:[0.9,1.2]'
p173
(dp174
g9
F0.96109539270401
sg10
F0.0005666176060135408
sssS'pt:[26.0,30.0]'
p175
(dp176
S'abseta:[0.0,0.9]'
p177
(dp178
g9
F0.9749304056167603
sg10
F0.00098389723528156
ssS'abseta:[1.2,2.1]'
p179
(dp180
g9
F0.9813432693481445
sg10
F0.0018018514476494285
ssS'abseta:[2.1,2.4]'
p181
(dp182
g9
F0.8999319076538086
sg10
F0.0037270204980831283
ssS'abseta:[0.9,1.2]'
p183
(dp184
g9
F0.9510084390640259
sg10
F0.002166569453576029
sssS'pt:[60.0,120.0]'
p185
(dp186
S'abseta:[0.0,0.9]'
p187
(dp188
g9
F0.9762392044067383
sg10
F0.0009877298800761555
ssS'abseta:[1.2,2.1]'
p189
(dp190
g9
F0.99547278881073
sg10
F0.0014161203058623746
ssS'abseta:[2.1,2.4]'
p191
(dp192
g9
F0.9439091086387634
sg10
F0.003811007093314756
ssS'abseta:[0.9,1.2]'
p193
(dp194
g9
F0.9599408507347107
sg10
F0.0012963487914918214
sssS'pt:[120.0,200.0]'
p195
(dp196
S'abseta:[0.0,0.9]'
p197
(dp198
g9
F0.9716373682022095
sg10
F0.005781657457724596
ssS'abseta:[1.2,2.1]'
p199
(dp200
g9
F1.0058729648590088
sg10
F0.009042723854226446
ssS'abseta:[2.1,2.4]'
p201
(dp202
g9
F0.972006618976593
sg10
F0.037981049974968865
ssS'abseta:[0.9,1.2]'
p203
(dp204
g9
F0.9404021501541138
sg10
F0.006503557654982247
sssS'pt:[200.0,500.0]'
p205
(dp206
S'abseta:[0.0,0.9]'
p207
(dp208
g9
F0.9745906591415405
sg10
F0.00859503981540333
ssS'abseta:[1.2,2.1]'
p209
(dp210
g9
F0.9700033068656921
sg10
F0.030506555574081294
ssS'abseta:[2.1,2.4]'
p211
(dp212
g9
F0.9034812450408936
sg10
F0.27585130082693726
ssS'abseta:[0.9,1.2]'
p213
(dp214
g9
F0.9270547032356262
sg10
F0.019906367435662126
sssS'pt:[50.0,60.0]'
p215
(dp216
S'abseta:[0.0,0.9]'
p217
(dp218
g9
F0.9794716238975525
sg10
F0.0005494610978538173
ssS'abseta:[1.2,2.1]'
p219
(dp220
g9
F0.9964250326156616
sg10
F0.0008939979485728349
ssS'abseta:[2.1,2.4]'
p221
(dp222
g9
F0.9549306035041809
sg10
F0.0023442639114234142
ssS'abseta:[0.9,1.2]'
p223
(dp224
g9
F0.9622570872306824
sg10
F0.0007968529798843849
sssS'pt:[40.0,50.0]'
p225
(dp226
S'abseta:[0.0,0.9]'
p227
(dp228
g9
F0.9786019325256348
sg10
F0.0002517965991936066
ssS'abseta:[1.2,2.1]'
p229
(dp230
g9
F0.9967966675758362
sg10
F0.0004221602796828659
ssS'abseta:[2.1,2.4]'
p231
(dp232
g9
F0.9530816674232483
sg10
F0.0010850750276088152
ssS'abseta:[0.9,1.2]'
p233
(dp234
g9
F0.9623309373855591
sg10
F0.0003763699628740865
ssssS'abseta_pt_ratio'
p235
(dp236
S'abseta:[0.0,0.9]'
p237
(dp238
S'pt:[30.0,40.0]'
p239
(dp240
g9
F0.9784002304077148
sg10
F0.0003229365043287514
ssS'pt:[26.0,30.0]'
p241
(dp242
g9
F0.9749304056167603
sg10
F0.00098389723528156
ssS'pt:[60.0,120.0]'
p243
(dp244
g9
F0.9762392044067383
sg10
F0.0009877298800761555
ssS'pt:[120.0,200.0]'
p245
(dp246
g9
F0.9716373682022095
sg10
F0.005781657457724596
ssS'pt:[200.0,500.0]'
p247
(dp248
g9
F0.9745906591415405
sg10
F0.00859503981540333
ssS'pt:[50.0,60.0]'
p249
(dp250
g9
F0.9794716238975525
sg10
F0.0005494610978538173
ssS'pt:[40.0,50.0]'
p251
(dp252
g9
F0.9786019325256348
sg10
F0.0002517965991936066
sssS'abseta:[1.2,2.1]'
p253
(dp254
S'pt:[30.0,40.0]'
p255
(dp256
g9
F0.994604229927063
sg10
F0.000607720472996522
ssS'pt:[26.0,30.0]'
p257
(dp258
g9
F0.9813432693481445
sg10
F0.0018018514476494285
ssS'pt:[60.0,120.0]'
p259
(dp260
g9
F0.99547278881073
sg10
F0.0014161203058623746
ssS'pt:[120.0,200.0]'
p261
(dp262
g9
F1.0058729648590088
sg10
F0.009042723854226446
ssS'pt:[200.0,500.0]'
p263
(dp264
g9
F0.9700033068656921
sg10
F0.030506555574081294
ssS'pt:[50.0,60.0]'
p265
(dp266
g9
F0.9964250326156616
sg10
F0.0008939979485728349
ssS'pt:[40.0,50.0]'
p267
(dp268
g9
F0.9967966675758362
sg10
F0.0004221602796828659
sssS'abseta:[2.1,2.4]'
p269
(dp270
S'pt:[30.0,40.0]'
p271
(dp272
g9
F0.9412131905555725
sg10
F0.001359540397357431
ssS'pt:[26.0,30.0]'
p273
(dp274
g9
F0.8999319076538086
sg10
F0.0037270204980831283
ssS'pt:[60.0,120.0]'
p275
(dp276
g9
F0.9439091086387634
sg10
F0.003811007093314756
ssS'pt:[120.0,200.0]'
p277
(dp278
g9
F0.972006618976593
sg10
F0.037981049974968865
ssS'pt:[200.0,500.0]'
p279
(dp280
g9
F0.9034812450408936
sg10
F0.27585130082693726
ssS'pt:[50.0,60.0]'
p281
(dp282
g9
F0.9549306035041809
sg10
F0.0023442639114234142
ssS'pt:[40.0,50.0]'
p283
(dp284
g9
F0.9530816674232483
sg10
F0.0010850750276088152
sssS'abseta:[0.9,1.2]'
p285
(dp286
S'pt:[30.0,40.0]'
p287
(dp288
g9
F0.96109539270401
sg10
F0.0005666176060135408
ssS'pt:[26.0,30.0]'
p289
(dp290
g9
F0.9510084390640259
sg10
F0.002166569453576029
ssS'pt:[60.0,120.0]'
p291
(dp292
g9
F0.9599408507347107
sg10
F0.0012963487914918214
ssS'pt:[120.0,200.0]'
p293
(dp294
g9
F0.9404021501541138
sg10
F0.006503557654982247
ssS'pt:[200.0,500.0]'
p295
(dp296
g9
F0.9270547032356262
sg10
F0.019906367435662126
ssS'pt:[50.0,60.0]'
p297
(dp298
g9
F0.9622570872306824
sg10
F0.0007968529798843849
ssS'pt:[40.0,50.0]'
p299
(dp300
g9
F0.9623309373855591
sg10
F0.0003763699628740865
sssssS'Mu50_OR_TkMu50_EtaBins'
p301
(dp302
S'eta_ratio'
p303
(dp304
S'eta:[-0.2,0.0]'
p305
(dp306
g9
F0.9616872668266296
sg10
F0.0012469092870503328
ssS'eta:[0.2,0.3]'
p307
(dp308
g9
F0.9291645288467407
sg10
F0.003075385444604101
ssS'eta:[-2.4,-2.1]'
p309
(dp310
g9
F0.9301052689552307
sg10
F0.0031515362275020054
ssS'eta:[0.9,1.2]'
p311
(dp312
g9
F0.9417799711227417
sg10
F0.0010034577987336627
ssS'eta:[0.3,0.9]'
p313
(dp314
g9
F0.9821904897689819
sg10
F0.0007710235368623673
ssS'eta:[-0.9,-0.3]'
p315
(dp316
g9
F0.9775676131248474
sg10
F0.0007666626553792665
ssS'eta:[0.0,0.2]'
p317
(dp318
g9
F0.9667940735816956
sg10
F0.0012014370708336275
ssS'eta:[-1.2,-0.9]'
p319
(dp320
g9
F0.9453455805778503
sg10
F0.001011441782920128
ssS'eta:[2.1,2.4]'
p321
(dp322
g9
F0.890353262424469
sg10
F0.0029577025891776593
ssS'eta:[-1.6,-1.2]'
p323
(dp324
g9
F1.0064185857772827
sg10
F0.001490449596457404
ssS'eta:[1.2,1.6]'
p325
(dp326
g9
F0.9959291815757751
sg10
F0.0014676436559310803
ssS'eta:[-2.1,-1.6]'
p327
(dp328
g9
F0.96630859375
sg10
F0.0018309159279821382
ssS'eta:[-0.3,-0.2]'
p329
(dp330
g9
F0.8877162933349609
sg10
F0.003061590079983077
ssS'eta:[1.6,2.1]'
p331
(dp332
g9
F0.9532558917999268
sg10
F0.0016707885239817353
ssssS'IsoMu24_OR_IsoTkMu24_PtBins'
p333
(dp334
S'pt_ratio'
p335
(dp336
S'pt:[22.0,24.0]'
p337
(dp338
g9
F1.5987954139709473
sg10
F0.027465313360530888
ssS'pt:[18.0,22.0]'
p339
(dp340
g9
F4.388949394226074
sg10
F0.7039242767380061
ssS'pt:[120.0,200.0]'
p341
(dp342
g9
F0.975191056728363
sg10
F0.00316913593219145
ssS'pt:[15.0,18.0]'
p343
(dp344
g9
F15.072855949401855
sg10
F23.764711054601786
ssS'pt:[10.0,15.0]'
p345
(dp346
g9
F0.0
sg10
F0.0
ssS'pt:[80.0,120.0]'
p347
(dp348
g9
F0.977958083152771
sg10
F0.0014682069012655848
ssS'pt:[26.0,30.0]'
p349
(dp350
g9
F0.9664221405982971
sg10
F0.0006684475850857714
ssS'pt:[30.0,40.0]'
p351
(dp352
g9
F0.9781169295310974
sg10
F0.0002596942825716038
ssS'pt:[24.0,26.0]'
p353
(dp354
g9
F0.9372894167900085
sg10
F0.0013546440754781453
ssS'pt:[200.0,500.0]'
p355
(dp356
g9
F0.9704045653343201
sg10
F0.0077163120380672285
ssS'pt:[60.0,80.0]'
p357
(dp358
g9
F0.9804369211196899
sg10
F0.0006854434149065706
ssS'pt:[50.0,60.0]'
p359
(dp360
g9
F0.98216313123703
sg10
F0.0004275641716799847
ssS'pt:[0.0,10.0]'
p361
(dp362
g9
F0.0
sg10
F0.0
ssS'pt:[40.0,50.0]'
p363
(dp364
g9
F0.9818692207336426
sg10
F0.00020302311424332464
ssssS'IsoMu24_OR_IsoTkMu24_EtaBins'
p365
(dp366
S'eta_ratio'
p367
(dp368
S'eta:[-0.2,0.0]'
p369
(dp370
g9
F0.9700416922569275
sg10
F0.0004984412818416252
ssS'eta:[0.2,0.3]'
p371
(dp372
g9
F0.9434581398963928
sg10
F0.001114029263391388
ssS'eta:[-2.4,-2.1]'
p373
(dp374
g9
F0.9635853171348572
sg10
F0.001116186714768726
ssS'eta:[0.9,1.2]'
p375
(dp376
g9
F0.9588658809661865
sg10
F0.00040776536378211585
ssS'eta:[0.3,0.9]'
p377
(dp378
g9
F0.9901609420776367
sg10
F0.00030603772131849777
ssS'eta:[-0.9,-0.3]'
p379
(dp380
g9
F0.9860388040542603
sg10
F0.0003031196196444346
ssS'eta:[0.0,0.2]'
p381
(dp382
g9
F0.9727356433868408
sg10
F0.000488991407287253
ssS'eta:[-1.2,-0.9]'
p383
(dp384
g9
F0.9623511433601379
sg10
F0.0004177883233195934
ssS'eta:[2.1,2.4]'
p385
(dp386
g9
F0.9249178767204285
sg10
F0.0010598596062590367
ssS'eta:[-1.6,-1.2]'
p387
(dp388
g9
F1.0192272663116455
sg10
F0.0005910966967058701
ssS'eta:[1.2,1.6]'
p389
(dp390
g9
F1.0066640377044678
sg10
F0.0005848555852758312
ssS'eta:[-2.1,-1.6]'
p391
(dp392
g9
F0.9818804860115051
sg10
F0.000702278910894024
ssS'eta:[-0.3,-0.2]'
p393
(dp394
g9
F0.9003680944442749
sg10
F0.0010973889656855555
ssS'eta:[1.6,2.1]'
p395
(dp396
g9
F0.9684132933616638
sg10
F0.0006362875073300873
ssssS'Mu50_OR_TkMu50_PtBins'
p397
(dp398
S'pt_ratio'
p399
(dp400
S'pt:[120.0,200.0]'
p401
(dp402
g9
F0.9668567776679993
sg10
F0.0030478128692799597
ssS'pt:[25.0,30.0]'
p403
(dp404
g9
F5.309567451477051
sg10
F0.8972384863369895
ssS'pt:[30.0,40.0]'
p405
(dp406
g9
F4.585687160491943
sg10
F0.1480952293443843
ssS'pt:[80.0,120.0]'
p407
(dp408
g9
F0.9706218242645264
sg10
F0.0014420376379200403
ssS'pt:[10.0,15.0]'
p409
(dp410
g9
F0.0
sg10
F0.0
ssS'pt:[400.0,800.0]'
p411
(dp412
g9
F0.9553779363632202
sg10
F0.04108416122176328
ssS'pt:[55.0,60.0]'
p413
(dp414
g9
F0.9702865481376648
sg10
F0.0007456524173902414
ssS'pt:[45.0,48.0]'
p415
(dp416
g9
F4.8245649337768555
sg10
F0.07065426009360443
ssS'pt:[52.0,55.0]'
p417
(dp418
g9
F0.9601722359657288
sg10
F0.0007150450450568286
ssS'pt:[0.0,10.0]'
p419
(dp420
g9
F0.0
sg10
F0.0
ssS'pt:[50.0,52.0]'
p421
(dp422
g9
F0.9129295349121094
sg10
F0.0008858363015237155
ssS'pt:[40.0,45.0]'
p423
(dp424
g9
F5.093190670013428
sg10
F0.09332187635756438
ssS'pt:[60.0,80.0]'
p425
(dp426
g9
F0.9722740054130554
sg10
F0.0006637621597735681
ssS'pt:[20.0,25.0]'
p427
(dp428
g9
F4.313456058502197
sg10
F1.6374599332348054
ssS'pt:[200.0,300.0]'
p429
(dp430
g9
F0.9587133526802063
sg10
F0.008444474861591453
ssS'pt:[48.0,50.0]'
p431
(dp432
g9
F1.5198163986206055
sg10
F0.009140191509961447
ssS'pt:[300.0,400.0]'
p433
(dp434
g9
F1.0042930841445923
sg10
F0.021980104030742794
ssS'pt:[15.0,20.0]'
p435
(dp436
g9
F1.8230876922607422
sg10
F1.4858374653223587
ssss.