(dp0
S'Mu50_PtBins'
p1
(dp2
S'pt_ratio'
p3
(dp4
S'pt:[300.0,500.0]'
p5
(dp6
S'value'
p7
F0.9584237933158875
sS'error'
p8
F0.011755430315640242
ssS'pt:[700.0,1200.0]'
p9
(dp10
g7
F0.9263105988502502
sg8
F0.11704863162366834
ssS'pt:[48.0,50.0]'
p11
(dp12
g7
F1.3504416942596436
sg8
F0.0068628512912812835
ssS'pt:[60.0,120.0]'
p13
(dp14
g7
F0.967544674873352
sg8
F0.0006676611079624036
ssS'pt:[120.0,200.0]'
p15
(dp16
g7
F0.9690930843353271
sg8
F0.002442775074125074
ssS'pt:[55.0,60.0]'
p17
(dp18
g7
F0.965916633605957
sg8
F0.0007147737405118984
ssS'pt:[45.0,48.0]'
p19
(dp20
g7
F1.682960033416748
sg8
F0.014519297738023799
ssS'pt:[52.0,55.0]'
p21
(dp22
g7
F0.960534930229187
sg8
F0.0006889248848108903
ssS'pt:[500.0,700.0]'
p23
(dp24
g7
F1.0079342126846313
sg8
F0.055513881059231523
ssS'pt:[50.0,52.0]'
p25
(dp26
g7
F0.9273584485054016
sg8
F0.0010463720988093592
ssS'pt:[200.0,300.0]'
p27
(dp28
g7
F0.9512237310409546
sg8
F0.006037394873204165
ssS'pt:[2.0,45.0]'
p29
(dp30
g7
F1.9911190271377563
sg8
F0.007257835527331546
ssssS'IsoMu27_PtBins'
p31
(dp32
S'pt_ratio'
p33
(dp34
S'pt:[300.0,500.0]'
p35
(dp36
g7
F0.9673665165901184
sg8
F0.01165318839631945
ssS'pt:[200.0,300.0]'
p37
(dp38
g7
F0.9566900730133057
sg8
F0.006363547751918163
ssS'pt:[2.0,22.0]'
p39
(dp40
g7
F0.67887943983078
sg8
F0.12526007904446562
ssS'pt:[60.0,120.0]'
p41
(dp42
g7
F0.9713894128799438
sg8
F0.0007135822157807915
ssS'pt:[120.0,200.0]'
p43
(dp44
g7
F0.971608579158783
sg8
F0.002726049505058903
ssS'pt:[32.0,40.0]'
p45
(dp46
g7
F0.9724661707878113
sg8
F0.00024549397968086107
ssS'pt:[22.0,25.0]'
p47
(dp48
g7
F1.4233860969543457
sg8
F0.11763021276517222
ssS'pt:[500.0,700.0]'
p49
(dp50
g7
F0.9968768954277039
sg8
F0.055165010499211506
ssS'pt:[700.0,1200.0]'
p51
(dp52
g7
F1.0305564403533936
sg8
F0.1569463914966464
ssS'pt:[25.0,27.0]'
p53
(dp54
g7
F1.2420299053192139
sg8
F0.01751133380470991
ssS'pt:[29.0,32.0]'
p55
(dp56
g7
F0.9651350378990173
sg8
F0.0007307873377493635
ssS'pt:[50.0,60.0]'
p57
(dp58
g7
F0.9731351733207703
sg8
F0.00037355654095409937
ssS'pt:[27.0,29.0]'
p59
(dp60
g7
F0.9473478198051453
sg8
F0.0014193128024370812
ssS'pt:[40.0,50.0]'
p61
(dp62
g7
F0.974001407623291
sg8
F0.0001641177724643836
ssssS'IsoMu27_EtaBins'
p63
(dp64
S'eta_ratio'
p65
(dp66
S'eta:[-0.2,0.2]'
p67
(dp68
g7
F0.9768268465995789
sg8
F0.00029935632675726087
ssS'eta:[-2.4,-2.1]'
p69
(dp70
g7
F0.9131031632423401
sg8
F0.0011866936736996115
ssS'eta:[0.3,0.9]'
p71
(dp72
g7
F0.9702153205871582
sg8
F0.0002647580246706732
ssS'eta:[-0.9,-0.3]'
p73
(dp74
g7
F0.9794028401374817
sg8
F0.000265639278875673
ssS'eta:[0.2,0.3]'
p75
(dp76
g7
F0.9446611404418945
sg8
F0.0008674909537356128
ssS'eta:[0.9,1.2]'
p77
(dp78
g7
F0.9490225911140442
sg8
F0.000428718194274909
ssS'eta:[-1.2,-0.9]'
p79
(dp80
g7
F0.9569613337516785
sg8
F0.0004470118160032951
ssS'eta:[2.1,2.4]'
p81
(dp82
g7
F0.9306216835975647
sg8
F0.0010128987164837342
ssS'eta:[-1.6,-1.2]'
p83
(dp84
g7
F1.0139634609222412
sg8
F0.0005743734003736218
ssS'eta:[1.2,1.6]'
p85
(dp86
g7
F1.006408452987671
sg8
F0.0005687002336608025
ssS'eta:[-2.1,-1.6]'
p87
(dp88
g7
F0.9751001596450806
sg8
F0.0006734228006865852
ssS'eta:[-0.3,-0.2]'
p89
(dp90
g7
F0.9448743462562561
sg8
F0.0008915988959550212
ssS'eta:[1.6,2.1]'
p91
(dp92
g7
F0.9805998206138611
sg8
F0.0005693082616832502
ssssS'IsoMu27_PtEtaBins'
p93
(dp94
S'pt_abseta_ratio'
p95
(dp96
S'pt:[200.0,1200.0]'
p97
(dp98
S'abseta:[0.0,0.9]'
p99
(dp100
g7
F0.9626321196556091
sg8
F0.005976490778688086
ssS'abseta:[1.2,2.1]'
p101
(dp102
g7
F0.9828428626060486
sg8
F0.019950852222071058
ssS'abseta:[2.1,2.4]'
p103
(dp104
g7
F0.8435198068618774
sg8
F0.040578290861666234
ssS'abseta:[0.9,1.2]'
p105
(dp106
g7
F0.9266601204872131
sg8
F0.013906273349243933
sssS'pt:[60.0,120.0]'
p107
(dp108
S'abseta:[0.0,0.9]'
p109
(dp110
g7
F0.9705051779747009
sg8
F0.0008784289681257298
ssS'abseta:[1.2,2.1]'
p111
(dp112
g7
F0.9873659014701843
sg8
F0.0014042142606167437
ssS'abseta:[2.1,2.4]'
p113
(dp114
g7
F0.9484940767288208
sg8
F0.004220159449921819
ssS'abseta:[0.9,1.2]'
p115
(dp116
g7
F0.9449776411056519
sg8
F0.0015208611179755769
sssS'pt:[120.0,200.0]'
p117
(dp118
S'abseta:[0.0,0.9]'
p119
(dp120
g7
F0.9698120355606079
sg8
F0.003061058191954253
ssS'abseta:[1.2,2.1]'
p121
(dp122
g7
F0.9921801686286926
sg8
F0.005650038038616055
ssS'abseta:[2.1,2.4]'
p123
(dp124
g7
F0.9726911187171936
sg8
F0.020286918775933194
ssS'abseta:[0.9,1.2]'
p125
(dp126
g7
F0.9343395233154297
sg8
F0.005510319967211569
sssS'pt:[32.0,40.0]'
p127
(dp128
S'abseta:[0.0,0.9]'
p129
(dp130
g7
F0.9728889465332031
sg8
F0.0002695662373517832
ssS'abseta:[1.2,2.1]'
p131
(dp132
g7
F0.9965652227401733
sg8
F0.0005540909909055752
ssS'abseta:[2.1,2.4]'
p133
(dp134
g7
F0.9108149409294128
sg8
F0.001257814655989856
ssS'abseta:[0.9,1.2]'
p135
(dp136
g7
F0.9544190764427185
sg8
F0.0005574671451763681
sssS'pt:[29.0,32.0]'
p137
(dp138
S'abseta:[0.0,0.9]'
p139
(dp140
g7
F0.9704915285110474
sg8
F0.000759059662283655
ssS'abseta:[1.2,2.1]'
p141
(dp142
g7
F0.9900779128074646
sg8
F0.0016639175540958547
ssS'abseta:[2.1,2.4]'
p143
(dp144
g7
F0.8622288107872009
sg8
F0.003523486596582243
ssS'abseta:[0.9,1.2]'
p145
(dp146
g7
F0.9515224695205688
sg8
F0.0019084553129563272
sssS'pt:[40.0,50.0]'
p147
(dp148
S'abseta:[0.0,0.9]'
p149
(dp150
g7
F0.9721969366073608
sg8
F0.00019893907467976598
ssS'abseta:[1.2,2.1]'
p151
(dp152
g7
F0.9939827919006348
sg8
F0.0003458035015586689
ssS'abseta:[2.1,2.4]'
p153
(dp154
g7
F0.9317348003387451
sg8
F0.000911089977893418
ssS'abseta:[0.9,1.2]'
p155
(dp156
g7
F0.9525472521781921
sg8
F0.00035445096103908314
sssS'pt:[50.0,60.0]'
p157
(dp158
S'abseta:[0.0,0.9]'
p159
(dp160
g7
F0.9719104170799255
sg8
F0.00044864664690800164
ssS'abseta:[1.2,2.1]'
p161
(dp162
g7
F0.9901482462882996
sg8
F0.0007651447546847016
ssS'abseta:[2.1,2.4]'
p163
(dp164
g7
F0.9442654848098755
sg8
F0.0020906936312926274
ssS'abseta:[0.9,1.2]'
p165
(dp166
g7
F0.9518248438835144
sg8
F0.0007887377017709971
ssssS'abseta_pt_ratio'
p167
(dp168
S'abseta:[0.0,0.9]'
p169
(dp170
S'pt:[200.0,1200.0]'
p171
(dp172
g7
F0.9626321196556091
sg8
F0.005976490778688086
ssS'pt:[60.0,120.0]'
p173
(dp174
g7
F0.9705051779747009
sg8
F0.0008784289681257298
ssS'pt:[120.0,200.0]'
p175
(dp176
g7
F0.9698120355606079
sg8
F0.003061058191954253
ssS'pt:[32.0,40.0]'
p177
(dp178
g7
F0.9728889465332031
sg8
F0.0002695662373517832
ssS'pt:[29.0,32.0]'
p179
(dp180
g7
F0.9704915285110474
sg8
F0.000759059662283655
ssS'pt:[40.0,50.0]'
p181
(dp182
g7
F0.9721969366073608
sg8
F0.00019893907467976598
ssS'pt:[50.0,60.0]'
p183
(dp184
g7
F0.9719104170799255
sg8
F0.00044864664690800164
sssS'abseta:[1.2,2.1]'
p185
(dp186
S'pt:[200.0,1200.0]'
p187
(dp188
g7
F0.9828428626060486
sg8
F0.019950852222071058
ssS'pt:[60.0,120.0]'
p189
(dp190
g7
F0.9873659014701843
sg8
F0.0014042142606167437
ssS'pt:[120.0,200.0]'
p191
(dp192
g7
F0.9921801686286926
sg8
F0.005650038038616055
ssS'pt:[32.0,40.0]'
p193
(dp194
g7
F0.9965652227401733
sg8
F0.0005540909909055752
ssS'pt:[29.0,32.0]'
p195
(dp196
g7
F0.9900779128074646
sg8
F0.0016639175540958547
ssS'pt:[40.0,50.0]'
p197
(dp198
g7
F0.9939827919006348
sg8
F0.0003458035015586689
ssS'pt:[50.0,60.0]'
p199
(dp200
g7
F0.9901482462882996
sg8
F0.0007651447546847016
sssS'abseta:[2.1,2.4]'
p201
(dp202
S'pt:[200.0,1200.0]'
p203
(dp204
g7
F0.8435198068618774
sg8
F0.040578290861666234
ssS'pt:[60.0,120.0]'
p205
(dp206
g7
F0.9484940767288208
sg8
F0.004220159449921819
ssS'pt:[120.0,200.0]'
p207
(dp208
g7
F0.9726911187171936
sg8
F0.020286918775933194
ssS'pt:[32.0,40.0]'
p209
(dp210
g7
F0.9108149409294128
sg8
F0.001257814655989856
ssS'pt:[29.0,32.0]'
p211
(dp212
g7
F0.8622288107872009
sg8
F0.003523486596582243
ssS'pt:[40.0,50.0]'
p213
(dp214
g7
F0.9317348003387451
sg8
F0.000911089977893418
ssS'pt:[50.0,60.0]'
p215
(dp216
g7
F0.9442654848098755
sg8
F0.0020906936312926274
sssS'abseta:[0.9,1.2]'
p217
(dp218
S'pt:[200.0,1200.0]'
p219
(dp220
g7
F0.9266601204872131
sg8
F0.013906273349243933
ssS'pt:[60.0,120.0]'
p221
(dp222
g7
F0.9449776411056519
sg8
F0.0015208611179755769
ssS'pt:[120.0,200.0]'
p223
(dp224
g7
F0.9343395233154297
sg8
F0.005510319967211569
ssS'pt:[32.0,40.0]'
p225
(dp226
g7
F0.9544190764427185
sg8
F0.0005574671451763681
ssS'pt:[29.0,32.0]'
p227
(dp228
g7
F0.9515224695205688
sg8
F0.0019084553129563272
ssS'pt:[40.0,50.0]'
p229
(dp230
g7
F0.9525472521781921
sg8
F0.00035445096103908314
ssS'pt:[50.0,60.0]'
p231
(dp232
g7
F0.9518248438835144
sg8
F0.0007887377017709971
sssssS'Mu50_VtxBins'
p233
(dp234
S'tag_nVertices_ratio'
p235
(dp236
S'tag:[30.5,32.5]'
p237
(dp238
g7
F0.963889479637146
sg8
F0.0015561485708312016
ssS'tag:[46.5,48.5]'
p239
(dp240
g7
F0.9666572213172913
sg8
F0.004415619030645462
ssS'tag:[28.5,30.5]'
p241
(dp242
g7
F0.9632297158241272
sg8
F0.0014270781463277104
ssS'tag:[44.5,46.5]'
p243
(dp244
g7
F0.965459942817688
sg8
F0.003514661344634543
ssS'tag:[6.5,8.5]'
p245
(dp246
g7
F0.967131495475769
sg8
F0.004971789812178734
ssS'tag:[14.5,16.5]'
p247
(dp248
g7
F0.9666683673858643
sg8
F0.0015035270432859223
ssS'tag:[24.5,26.5]'
p249
(dp250
g7
F0.9657067656517029
sg8
F0.0013528252543470298
ssS'tag:[34.5,36.5]'
p251
(dp252
g7
F0.9653234481811523
sg8
F0.00191224271775222
ssS'tag:[8.5,10.5]'
p253
(dp254
g7
F0.9687288999557495
sg8
F0.0031946642176475817
ssS'tag:[18.5,20.5]'
p255
(dp256
g7
F0.9637840986251831
sg8
F0.0013050535529824242
ssS'tag:[16.5,18.5]'
p257
(dp258
g7
F0.9642643928527832
sg8
F0.0013852552653920932
ssS'tag:[32.5,34.5]'
p259
(dp260
g7
F0.9637404084205627
sg8
F0.0016504811243943027
ssS'tag:[48.5,50.5]'
p261
(dp262
g7
F0.9698314666748047
sg8
F0.0056392602165381365
ssS'tag:[22.5,24.5]'
p263
(dp264
g7
F0.9653087258338928
sg8
F0.0013190819899697396
ssS'tag:[42.5,44.5]'
p265
(dp266
g7
F0.9626957774162292
sg8
F0.0032643421505978328
ssS'tag:[38.5,40.5]'
p267
(dp268
g7
F0.9657668471336365
sg8
F0.0022699574531192092
ssS'tag:[2.5,4.5]'
p269
(dp270
g7
F0.9646992683410645
sg8
F0.01725818314291187
ssS'tag:[12.5,14.5]'
p271
(dp272
g7
F0.9675734639167786
sg8
F0.001791375158993197
ssS'tag:[0.5,2.5]'
p273
(dp274
g7
F0.9639438390731812
sg8
F0.026659245351312637
ssS'tag:[40.5,42.5]'
p275
(dp276
g7
F0.9656256437301636
sg8
F0.00269010286420356
ssS'tag:[20.5,22.5]'
p277
(dp278
g7
F0.965530514717102
sg8
F0.001277476486455439
ssS'tag:[10.5,12.5]'
p279
(dp280
g7
F0.9636103510856628
sg8
F0.0026349828445483892
ssS'tag:[26.5,28.5]'
p281
(dp282
g7
F0.9619738459587097
sg8
F0.0013454944782183439
ssS'tag:[36.5,38.5]'
p283
(dp284
g7
F0.9634127020835876
sg8
F0.0019306660955105439
ssS'tag:[4.5,6.5]'
p285
(dp286
g7
F0.9592168927192688
sg8
F0.009141207711123674
ssssS'Mu50_EtaBins'
p287
(dp288
S'eta_ratio'
p289
(dp290
S'eta:[-0.2,0.2]'
p291
(dp292
g7
F0.974234402179718
sg8
F0.0007255866081631086
ssS'eta:[-2.4,-2.1]'
p293
(dp294
g7
F0.8906209468841553
sg8
F0.0035815843941797423
ssS'eta:[0.3,0.9]'
p295
(dp296
g7
F0.9653944373130798
sg8
F0.0006787329117160421
ssS'eta:[-0.9,-0.3]'
p297
(dp298
g7
F0.9768742322921753
sg8
F0.000699643750556166
ssS'eta:[0.2,0.3]'
p299
(dp300
g7
F0.9459981918334961
sg8
F0.002592720755325547
ssS'eta:[0.9,1.2]'
p301
(dp302
g7
F0.9400286078453064
sg8
F0.0010821416389961388
ssS'eta:[-1.2,-0.9]'
p303
(dp304
g7
F0.95083087682724
sg8
F0.0010695520522054343
ssS'eta:[2.1,2.4]'
p305
(dp306
g7
F0.8958921432495117
sg8
F0.003232502715980119
ssS'eta:[-1.6,-1.2]'
p307
(dp308
g7
F1.0014806985855103
sg8
F0.001513666064688482
ssS'eta:[1.2,1.6]'
p309
(dp310
g7
F0.9894780516624451
sg8
F0.0015517576669292863
ssS'eta:[-2.1,-1.6]'
p311
(dp312
g7
F0.9692374467849731
sg8
F0.001903918739818341
ssS'eta:[-0.3,-0.2]'
p313
(dp314
g7
F0.9411040544509888
sg8
F0.0026007984176782887
ssS'eta:[1.6,2.1]'
p315
(dp316
g7
F0.9718316197395325
sg8
F0.0015793564572807448
ssssS'Mu50_PtEtaBins'
p317
(dp318
S'pt_abseta_ratio'
p319
(dp320
S'pt:[52.0,55.0]'
p321
(dp322
S'abseta:[0.0,0.9]'
p323
(dp324
g7
F0.9681745767593384
sg8
F0.0006849388034766645
ssS'abseta:[1.2,2.1]'
p325
(dp326
g7
F0.9774789810180664
sg8
F0.0015103422062026058
ssS'abseta:[2.1,2.4]'
p327
(dp328
g7
F0.8460757732391357
sg8
F0.004374626217261061
ssS'abseta:[0.9,1.2]'
p329
(dp330
g7
F0.9450349807739258
sg8
F0.0012719123136817518
sssS'pt:[60.0,120.0]'
p331
(dp332
S'abseta:[0.0,0.9]'
p333
(dp334
g7
F0.9695942401885986
sg8
F0.0006885948319221606
ssS'abseta:[1.2,2.1]'
p335
(dp336
g7
F0.9852569699287415
sg8
F0.0013454552794199648
ssS'abseta:[2.1,2.4]'
p337
(dp338
g7
F0.9220642447471619
sg8
F0.003998319499174589
ssS'abseta:[0.9,1.2]'
p339
(dp340
g7
F0.9442095160484314
sg8
F0.0013014663176440504
sssS'pt:[120.0,200.0]'
p341
(dp342
S'abseta:[0.0,0.9]'
p343
(dp344
g7
F0.9676055908203125
sg8
F0.0029998333894311413
ssS'abseta:[1.2,2.1]'
p345
(dp346
g7
F0.9886888265609741
sg8
F0.005048595777500934
ssS'abseta:[2.1,2.4]'
p347
(dp348
g7
F0.9637629985809326
sg8
F0.02295988083954797
ssS'abseta:[0.9,1.2]'
p349
(dp350
g7
F0.9325969815254211
sg8
F0.005242145284599907
sssS'pt:[200.0,1200.0]'
p351
(dp352
S'abseta:[0.0,0.9]'
p353
(dp354
g7
F0.9565812349319458
sg8
F0.005893731645325751
ssS'abseta:[1.2,2.1]'
p355
(dp356
g7
F0.9731563329696655
sg8
F0.016994072520862095
ssS'abseta:[2.1,2.4]'
p357
(dp358
g7
F0.8729918003082275
sg8
F0.053187089682762374
ssS'abseta:[0.9,1.2]'
p359
(dp360
g7
F0.9215353727340698
sg8
F0.011204265712307874
sssS'pt:[55.0,60.0]'
p361
(dp362
S'abseta:[0.0,0.9]'
p363
(dp364
g7
F0.970207929611206
sg8
F0.0007796513982792383
ssS'abseta:[1.2,2.1]'
p365
(dp366
g7
F0.9846660494804382
sg8
F0.001539720571450937
ssS'abseta:[2.1,2.4]'
p367
(dp368
g7
F0.8852944374084473
sg8
F0.004343408333022555
ssS'abseta:[0.9,1.2]'
p369
(dp370
g7
F0.9476455450057983
sg8
F0.0013884394635168714
ssssS'abseta_pt_ratio'
p371
(dp372
S'abseta:[0.0,0.9]'
p373
(dp374
S'pt:[52.0,55.0]'
p375
(dp376
g7
F0.9681745767593384
sg8
F0.0006849388034766645
ssS'pt:[60.0,120.0]'
p377
(dp378
g7
F0.9695942401885986
sg8
F0.0006885948319221606
ssS'pt:[120.0,200.0]'
p379
(dp380
g7
F0.9676055908203125
sg8
F0.0029998333894311413
ssS'pt:[200.0,1200.0]'
p381
(dp382
g7
F0.9565812349319458
sg8
F0.005893731645325751
ssS'pt:[55.0,60.0]'
p383
(dp384
g7
F0.970207929611206
sg8
F0.0007796513982792383
sssS'abseta:[1.2,2.1]'
p385
(dp386
S'pt:[52.0,55.0]'
p387
(dp388
g7
F0.9774789810180664
sg8
F0.0015103422062026058
ssS'pt:[60.0,120.0]'
p389
(dp390
g7
F0.9852569699287415
sg8
F0.0013454552794199648
ssS'pt:[120.0,200.0]'
p391
(dp392
g7
F0.9886888265609741
sg8
F0.005048595777500934
ssS'pt:[200.0,1200.0]'
p393
(dp394
g7
F0.9731563329696655
sg8
F0.016994072520862095
ssS'pt:[55.0,60.0]'
p395
(dp396
g7
F0.9846660494804382
sg8
F0.001539720571450937
sssS'abseta:[2.1,2.4]'
p397
(dp398
S'pt:[52.0,55.0]'
p399
(dp400
g7
F0.8460757732391357
sg8
F0.004374626217261061
ssS'pt:[60.0,120.0]'
p401
(dp402
g7
F0.9220642447471619
sg8
F0.003998319499174589
ssS'pt:[120.0,200.0]'
p403
(dp404
g7
F0.9637629985809326
sg8
F0.02295988083954797
ssS'pt:[200.0,1200.0]'
p405
(dp406
g7
F0.8729918003082275
sg8
F0.053187089682762374
ssS'pt:[55.0,60.0]'
p407
(dp408
g7
F0.8852944374084473
sg8
F0.004343408333022555
sssS'abseta:[0.9,1.2]'
p409
(dp410
S'pt:[52.0,55.0]'
p411
(dp412
g7
F0.9450349807739258
sg8
F0.0012719123136817518
ssS'pt:[60.0,120.0]'
p413
(dp414
g7
F0.9442095160484314
sg8
F0.0013014663176440504
ssS'pt:[120.0,200.0]'
p415
(dp416
g7
F0.9325969815254211
sg8
F0.005242145284599907
ssS'pt:[200.0,1200.0]'
p417
(dp418
g7
F0.9215353727340698
sg8
F0.011204265712307874
ssS'pt:[55.0,60.0]'
p419
(dp420
g7
F0.9476455450057983
sg8
F0.0013884394635168714
sssssS'IsoMu27_VtxBins'
p421
(dp422
S'tag_nVertices_ratio'
p423
(dp424
S'tag:[30.5,32.5]'
p425
(dp426
g7
F0.9706435799598694
sg8
F0.0005555237060498033
ssS'tag:[46.5,48.5]'
p427
(dp428
g7
F0.9716632962226868
sg8
F0.0016708167228782988
ssS'tag:[28.5,30.5]'
p429
(dp430
g7
F0.9711059927940369
sg8
F0.000533938077871707
ssS'tag:[44.5,46.5]'
p431
(dp432
g7
F0.9694594144821167
sg8
F0.0013430229420893299
ssS'tag:[6.5,8.5]'
p433
(dp434
g7
F0.9700408577919006
sg8
F0.001738642078360312
ssS'tag:[14.5,16.5]'
p435
(dp436
g7
F0.972794234752655
sg8
F0.0005347565203445025
ssS'tag:[24.5,26.5]'
p437
(dp438
g7
F0.9729412794113159
sg8
F0.00047904972539482906
ssS'tag:[34.5,36.5]'
p439
(dp440
g7
F0.9701552987098694
sg8
F0.0006662454259508034
ssS'tag:[8.5,10.5]'
p441
(dp442
g7
F0.9712951183319092
sg8
F0.00112827298175771
ssS'tag:[18.5,20.5]'
p443
(dp444
g7
F0.9733699560165405
sg8
F0.0004547169842409849
ssS'tag:[16.5,18.5]'
p445
(dp446
g7
F0.973781943321228
sg8
F0.00048107532135528193
ssS'tag:[32.5,34.5]'
p447
(dp448
g7
F0.9701233506202698
sg8
F0.000610373529820298
ssS'tag:[48.5,50.5]'
p449
(dp450
g7
F0.9715283513069153
sg8
F0.0024235898043830162
ssS'tag:[22.5,24.5]'
p451
(dp452
g7
F0.972992479801178
sg8
F0.000471742122586997
ssS'tag:[42.5,44.5]'
p453
(dp454
g7
F0.9693893790245056
sg8
F0.0012002980967412314
ssS'tag:[38.5,40.5]'
p455
(dp456
g7
F0.9698209166526794
sg8
F0.0008398929707445589
ssS'tag:[2.5,4.5]'
p457
(dp458
g7
F0.9710460305213928
sg8
F0.005567911233411869
ssS'tag:[12.5,14.5]'
p459
(dp460
g7
F0.9731072187423706
sg8
F0.0006261451856565896
ssS'tag:[0.5,2.5]'
p461
(dp462
g7
F0.9735027551651001
sg8
F0.010417528885933008
ssS'tag:[40.5,42.5]'
p463
(dp464
g7
F0.96904456615448
sg8
F0.001000372697790088
ssS'tag:[20.5,22.5]'
p465
(dp466
g7
F0.9730743765830994
sg8
F0.00045191239602488287
ssS'tag:[10.5,12.5]'
p467
(dp468
g7
F0.9731413125991821
sg8
F0.0008247079820964039
ssS'tag:[26.5,28.5]'
p469
(dp470
g7
F0.9722740054130554
sg8
F0.0004971227248357459
ssS'tag:[36.5,38.5]'
p471
(dp472
g7
F0.9691712856292725
sg8
F0.0007395403969038256
ssS'tag:[4.5,6.5]'
p473
(dp474
g7
F0.969096839427948
sg8
F0.006469523578843021
ssss.