(dp0
S'Mu50_OR_OldMu100_OR_TkMu100_PtBins'
p1
(dp2
S'pt_ratio'
p3
(dp4
S'pt:[44.0,48.0]'
p5
(dp6
S'value'
p7
F1.3470181226730347
sS'error'
p8
F0.01789220433262304
ssS'pt:[700.0,1200.0]'
p9
(dp10
g7
F1.023016095161438
sg8
F0.18575552846432095
ssS'pt:[48.0,50.0]'
p11
(dp12
g7
F1.4059457778930664
sg8
F0.007678824478845018
ssS'pt:[56.0,60.0]'
p13
(dp14
g7
F0.9876093864440918
sg8
F0.0005320929471174837
ssS'pt:[60.0,120.0]'
p15
(dp16
g7
F0.98688805103302
sg8
F0.0004189053930275667
ssS'pt:[120.0,200.0]'
p17
(dp18
g7
F0.9880694150924683
sg8
F0.001728529325830754
ssS'pt:[300.0,500.0]'
p19
(dp20
g7
F0.9700751304626465
sg8
F0.00773666634618849
ssS'pt:[52.0,56.0]'
p21
(dp22
g7
F0.9868358969688416
sg8
F0.0003837025692090954
ssS'pt:[2.0,44.0]'
p23
(dp24
g7
F1.6086353063583374
sg8
F0.05980427077533705
ssS'pt:[50.0,52.0]'
p25
(dp26
g7
F0.9691184163093567
sg8
F0.0005879401976617023
ssS'pt:[200.0,300.0]'
p27
(dp28
g7
F0.980466365814209
sg8
F0.003615814812147277
ssS'pt:[500.0,700.0]'
p29
(dp30
g7
F0.9635258913040161
sg8
F0.02797658259410267
ssssS'Mu50_OR_OldMu100_OR_TkMu100_EtaBins'
p31
(dp32
S'eta_ratio'
p33
(dp34
S'eta:[-0.2,0.2]'
p35
(dp36
g7
F0.9840059280395508
sg8
F0.0005405386833278181
ssS'eta:[-2.4,-2.1]'
p37
(dp38
g7
F1.0121862888336182
sg8
F0.0024010029327687257
ssS'eta:[0.3,0.9]'
p39
(dp40
g7
F0.9740211963653564
sg8
F0.0004849304755503274
ssS'eta:[-0.9,-0.3]'
p41
(dp42
g7
F0.9817928671836853
sg8
F0.0004830512046805769
ssS'eta:[0.2,0.3]'
p43
(dp44
g7
F0.964654803276062
sg8
F0.002038667485377857
ssS'eta:[0.9,1.2]'
p45
(dp46
g7
F0.9670078754425049
sg8
F0.0006551071651279685
ssS'eta:[-1.2,-0.9]'
p47
(dp48
g7
F0.9742429256439209
sg8
F0.0006669653474207123
ssS'eta:[2.1,2.4]'
p49
(dp50
g7
F0.9927695989608765
sg8
F0.0023160116136874184
ssS'eta:[-1.6,-1.2]'
p51
(dp52
g7
F1.0132801532745361
sg8
F0.0007626938007692669
ssS'eta:[1.2,1.6]'
p53
(dp54
g7
F1.0081850290298462
sg8
F0.0007697247649108012
ssS'eta:[-2.1,-1.6]'
p55
(dp56
g7
F0.9970675706863403
sg8
F0.0012170542650311502
ssS'eta:[-0.3,-0.2]'
p57
(dp58
g7
F0.961628258228302
sg8
F0.002004020626422363
ssS'eta:[1.6,2.1]'
p59
(dp60
g7
F1.0032581090927124
sg8
F0.0011643105626290276
ssssS'IsoMu24_EtaBins'
p61
(dp62
S'eta_ratio'
p63
(dp64
S'eta:[-0.2,0.2]'
p65
(dp66
g7
F0.9856246709823608
sg8
F0.00022690541780858985
ssS'eta:[-2.4,-2.1]'
p67
(dp68
g7
F1.015989899635315
sg8
F0.0009132585430524255
ssS'eta:[0.3,0.9]'
p69
(dp70
g7
F0.9772692918777466
sg8
F0.0002125718724896429
ssS'eta:[-0.9,-0.3]'
p71
(dp72
g7
F0.9844666719436646
sg8
F0.0002155264284978366
ssS'eta:[0.2,0.3]'
p73
(dp74
g7
F0.9672888517379761
sg8
F0.0006857820582075975
ssS'eta:[0.9,1.2]'
p75
(dp76
g7
F0.9725825190544128
sg8
F0.00032257112085422795
ssS'eta:[-1.2,-0.9]'
p77
(dp78
g7
F0.9786291122436523
sg8
F0.0003261764020378629
ssS'eta:[2.1,2.4]'
p79
(dp80
g7
F0.9907197952270508
sg8
F0.0009031314741208022
ssS'eta:[-1.6,-1.2]'
p81
(dp82
g7
F1.0211057662963867
sg8
F0.00038067421240292056
ssS'eta:[1.2,1.6]'
p83
(dp84
g7
F1.0154013633728027
sg8
F0.00040088048302792777
ssS'eta:[-2.1,-1.6]'
p85
(dp86
g7
F1.00670325756073
sg8
F0.0005084774857471685
ssS'eta:[-0.3,-0.2]'
p87
(dp88
g7
F0.9675430655479431
sg8
F0.000690305907988888
ssS'eta:[1.6,2.1]'
p89
(dp90
g7
F1.0128439664840698
sg8
F0.0004876152229338237
ssssS'Mu50_OR_OldMu100_OR_TkMu100_VtxBins'
p91
(dp92
S'tag_nVertices_ratio'
p93
(dp94
S'tag:[30.5,32.5]'
p95
(dp96
g7
F0.985130250453949
sg8
F0.000994200730730432
ssS'tag:[46.5,48.5]'
p97
(dp98
g7
F0.9844710230827332
sg8
F0.003870982577693501
ssS'tag:[28.5,30.5]'
p99
(dp100
g7
F0.9860395789146423
sg8
F0.0009038578063386447
ssS'tag:[44.5,46.5]'
p101
(dp102
g7
F0.9867515563964844
sg8
F0.0032748526569453228
ssS'tag:[6.5,8.5]'
p103
(dp104
g7
F0.9916189908981323
sg8
F0.002905174005580878
ssS'tag:[14.5,16.5]'
p105
(dp106
g7
F0.9870005249977112
sg8
F0.0009852497818252461
ssS'tag:[50.5,52.5]'
p107
(dp108
g7
F0.9931640625
sg8
F0.006287801531711059
ssS'tag:[24.5,26.5]'
p109
(dp110
g7
F0.987773597240448
sg8
F0.0008379713717923989
ssS'tag:[34.5,36.5]'
p111
(dp112
g7
F0.9854375123977661
sg8
F0.0012099780153114752
ssS'tag:[8.5,10.5]'
p113
(dp114
g7
F0.9887809157371521
sg8
F0.0018401820771806806
ssS'tag:[18.5,20.5]'
p115
(dp116
g7
F0.9872031211853027
sg8
F0.000864436684317103
ssS'tag:[16.5,18.5]'
p117
(dp118
g7
F0.9863229990005493
sg8
F0.0008957020762930831
ssS'tag:[56.5,58.5]'
p119
(dp120
g7
F0.9789554476737976
sg8
F0.011484441011968457
ssS'tag:[32.5,34.5]'
p121
(dp122
g7
F0.9862917065620422
sg8
F0.0011227501615102425
ssS'tag:[48.5,50.5]'
p123
(dp124
g7
F0.9858044385910034
sg8
F0.004739279962178021
ssS'tag:[22.5,24.5]'
p125
(dp126
g7
F0.9847533702850342
sg8
F0.0008053874162235223
ssS'tag:[52.5,54.5]'
p127
(dp128
g7
F0.9938801527023315
sg8
F0.007526781599767973
ssS'tag:[42.5,44.5]'
p129
(dp130
g7
F0.9860492944717407
sg8
F0.0025650973848604344
ssS'tag:[38.5,40.5]'
p131
(dp132
g7
F0.9827065467834473
sg8
F0.0017216351942835008
ssS'tag:[2.5,4.5]'
p133
(dp134
g7
F0.9831143021583557
sg8
F0.007029516467659515
ssS'tag:[12.5,14.5]'
p135
(dp136
g7
F0.9888394474983215
sg8
F0.0012184934062143564
ssS'tag:[0.5,2.5]'
p137
(dp138
g7
F0.9672386050224304
sg8
F0.013769853290927446
ssS'tag:[40.5,42.5]'
p139
(dp140
g7
F0.983864426612854
sg8
F0.0022316607729530574
ssS'tag:[54.5,56.5]'
p141
(dp142
g7
F0.985122799873352
sg8
F0.009738129595111828
ssS'tag:[20.5,22.5]'
p143
(dp144
g7
F0.9866077303886414
sg8
F0.0008310963989552665
ssS'tag:[10.5,12.5]'
p145
(dp146
g7
F0.9881395697593689
sg8
F0.0014843225448783397
ssS'tag:[26.5,28.5]'
p147
(dp148
g7
F0.9862396121025085
sg8
F0.0015845710834304662
ssS'tag:[58.5,60.5]'
p149
(dp150
g7
F0.9901854991912842
sg8
F0.012052049402253549
ssS'tag:[36.5,38.5]'
p151
(dp152
g7
F0.9883609414100647
sg8
F0.00150796516963611
ssS'tag:[4.5,6.5]'
p153
(dp154
g7
F0.9886473417282104
sg8
F0.004393004773931747
ssssS'IsoMu24_VtxBins'
p155
(dp156
S'tag_nVertices_ratio'
p157
(dp158
S'tag:[30.5,32.5]'
p159
(dp160
g7
F0.9902160167694092
sg8
F0.00042615247754110644
ssS'tag:[46.5,48.5]'
p161
(dp162
g7
F0.9946066737174988
sg8
F0.0018574095004387243
ssS'tag:[28.5,30.5]'
p163
(dp164
g7
F0.9904253482818604
sg8
F0.0004266401869600223
ssS'tag:[44.5,46.5]'
p165
(dp166
g7
F0.9935088157653809
sg8
F0.0014242319766563567
ssS'tag:[6.5,8.5]'
p167
(dp168
g7
F0.9919947981834412
sg8
F0.0010347353503154337
ssS'tag:[14.5,16.5]'
p169
(dp170
g7
F0.9900801777839661
sg8
F0.00038633384207847205
ssS'tag:[50.5,52.5]'
p171
(dp172
g7
F0.9960083365440369
sg8
F0.002648591038810616
ssS'tag:[24.5,26.5]'
p173
(dp174
g7
F0.9904651641845703
sg8
F0.0003860350761386036
ssS'tag:[34.5,36.5]'
p175
(dp176
g7
F0.9904049634933472
sg8
F0.0005017662670780482
ssS'tag:[8.5,10.5]'
p177
(dp178
g7
F0.9901742339134216
sg8
F0.0007386947401633592
ssS'tag:[18.5,20.5]'
p179
(dp180
g7
F0.9897893667221069
sg8
F0.0003591868837334448
ssS'tag:[16.5,18.5]'
p181
(dp182
g7
F0.9901421666145325
sg8
F0.0003531263501857569
ssS'tag:[56.5,58.5]'
p183
(dp184
g7
F0.9947190284729004
sg8
F0.0048108710729876025
ssS'tag:[32.5,34.5]'
p185
(dp186
g7
F0.9912831783294678
sg8
F0.00047399061967265995
ssS'tag:[48.5,50.5]'
p187
(dp188
g7
F0.9907743334770203
sg8
F0.002456906043910428
ssS'tag:[22.5,24.5]'
p189
(dp190
g7
F0.9901446104049683
sg8
F0.0003699940435591056
ssS'tag:[52.5,54.5]'
p191
(dp192
g7
F0.9945254325866699
sg8
F0.003539224664084542
ssS'tag:[42.5,44.5]'
p193
(dp194
g7
F0.9925393462181091
sg8
F0.0011135306829641552
ssS'tag:[38.5,40.5]'
p195
(dp196
g7
F0.9903063178062439
sg8
F0.0007484657228424887
ssS'tag:[2.5,4.5]'
p197
(dp198
g7
F0.9921860694885254
sg8
F0.002637052318008352
ssS'tag:[12.5,14.5]'
p199
(dp200
g7
F0.9916035532951355
sg8
F0.00045969138511351175
ssS'tag:[0.5,2.5]'
p201
(dp202
g7
F1.017295241355896
sg8
F0.0067873139634882715
ssS'tag:[40.5,42.5]'
p203
(dp204
g7
F0.9912478923797607
sg8
F0.00091620038233526
ssS'tag:[54.5,56.5]'
p205
(dp206
g7
F0.9951125979423523
sg8
F0.004133635688222088
ssS'tag:[20.5,22.5]'
p207
(dp208
g7
F0.989624559879303
sg8
F0.00036343162433625164
ssS'tag:[10.5,12.5]'
p209
(dp210
g7
F0.9902696013450623
sg8
F0.0005361136908184642
ssS'tag:[26.5,28.5]'
p211
(dp212
g7
F0.9902850389480591
sg8
F0.0004061332056463839
ssS'tag:[58.5,60.5]'
p213
(dp214
g7
F0.9895410537719727
sg8
F0.006033367294885114
ssS'tag:[36.5,38.5]'
p215
(dp216
g7
F0.9921175837516785
sg8
F0.0006289344636665778
ssS'tag:[4.5,6.5]'
p217
(dp218
g7
F0.9910653829574585
sg8
F0.0014656988583277865
ssssS'IsoMu24_PtEtaBins'
p219
(dp220
S'pt_abseta_ratio'
p221
(dp222
S'pt:[200.0,300.0]'
p223
(dp224
S'abseta:[0.0,0.9]'
p225
(dp226
g7
F0.9823213815689087
sg8
F0.0051115841925019395
ssS'abseta:[1.2,2.1]'
p227
(dp228
g7
F0.9930607676506042
sg8
F0.008000815500855346
ssS'abseta:[2.1,2.4]'
p229
(dp230
g7
F0.9947269558906555
sg8
F0.034314719498506376
ssS'abseta:[0.9,1.2]'
p231
(dp232
g7
F0.9438655376434326
sg8
F0.009799996697864546
sssS'pt:[30.0,40.0]'
p233
(dp234
S'abseta:[0.0,0.9]'
p235
(dp236
g7
F0.9807809591293335
sg8
F0.00019564158266952017
ssS'abseta:[1.2,2.1]'
p237
(dp238
g7
F1.016137957572937
sg8
F0.0003863534138455122
ssS'abseta:[2.1,2.4]'
p239
(dp240
g7
F0.999202311038971
sg8
F0.0010120217952783279
ssS'abseta:[0.9,1.2]'
p241
(dp242
g7
F0.9749003052711487
sg8
F0.00039894142866460423
sssS'pt:[26.0,30.0]'
p243
(dp244
S'abseta:[0.0,0.9]'
p245
(dp246
g7
F0.9755328893661499
sg8
F0.0006402260287210833
ssS'abseta:[1.2,2.1]'
p247
(dp248
g7
F1.0173287391662598
sg8
F0.001207691319191975
ssS'abseta:[2.1,2.4]'
p249
(dp250
g7
F0.984969973564148
sg8
F0.002910665763216051
ssS'abseta:[0.9,1.2]'
p251
(dp252
g7
F0.9664956331253052
sg8
F0.001622344201653404
sssS'pt:[60.0,120.0]'
p253
(dp254
S'abseta:[0.0,0.9]'
p255
(dp256
g7
F0.9786977767944336
sg8
F0.000533175111544473
ssS'abseta:[1.2,2.1]'
p257
(dp258
g7
F1.0071314573287964
sg8
F0.0009652936647191545
ssS'abseta:[2.1,2.4]'
p259
(dp260
g7
F1.0159474611282349
sg8
F0.0032725831012095094
ssS'abseta:[0.9,1.2]'
p261
(dp262
g7
F0.9721834063529968
sg8
F0.0008404671258160214
sssS'pt:[120.0,200.0]'
p263
(dp264
S'abseta:[0.0,0.9]'
p265
(dp266
g7
F0.97629714012146
sg8
F0.006705951412962248
ssS'abseta:[1.2,2.1]'
p267
(dp268
g7
F1.004201889038086
sg8
F0.0036289909867072002
ssS'abseta:[2.1,2.4]'
p269
(dp270
g7
F1.0001258850097656
sg8
F0.025043561229517723
ssS'abseta:[0.9,1.2]'
p271
(dp272
g7
F0.9712423086166382
sg8
F0.0035130258587694487
sssS'pt:[300.0,1200.0]'
p273
(dp274
S'abseta:[0.0,0.9]'
p275
(dp276
g7
F0.9524137377738953
sg8
F0.0105811737746922
ssS'abseta:[1.2,2.1]'
p277
(dp278
g7
F1.00035560131073
sg8
F0.017350782958317816
ssS'abseta:[2.1,2.4]'
p279
(dp280
g7
F0.9649938941001892
sg8
F0.09741847135195587
ssS'abseta:[0.9,1.2]'
p281
(dp282
g7
F0.9384830594062805
sg8
F0.019118003059258162
sssS'pt:[50.0,60.0]'
p283
(dp284
S'abseta:[0.0,0.9]'
p285
(dp286
g7
F0.9803041815757751
sg8
F0.00033066953412577124
ssS'abseta:[1.2,2.1]'
p287
(dp288
g7
F1.0099517107009888
sg8
F0.0005667949326635735
ssS'abseta:[2.1,2.4]'
p289
(dp290
g7
F1.0048402547836304
sg8
F0.001763288844514817
ssS'abseta:[0.9,1.2]'
p291
(dp292
g7
F0.9752546548843384
sg8
F0.000537300339166433
sssS'pt:[40.0,50.0]'
p293
(dp294
S'abseta:[0.0,0.9]'
p295
(dp296
g7
F0.9810476303100586
sg8
F0.00014516216683459473
ssS'abseta:[1.2,2.1]'
p297
(dp298
g7
F1.0129241943359375
sg8
F0.00025083269873003416
ssS'abseta:[2.1,2.4]'
p299
(dp300
g7
F1.0068858861923218
sg8
F0.000780663514969486
ssS'abseta:[0.9,1.2]'
p301
(dp302
g7
F0.9767721891403198
sg8
F0.00025094604337341173
ssssS'abseta_pt_ratio'
p303
(dp304
S'abseta:[0.0,0.9]'
p305
(dp306
S'pt:[200.0,300.0]'
p307
(dp308
g7
F0.9823213815689087
sg8
F0.0051115841925019395
ssS'pt:[30.0,40.0]'
p309
(dp310
g7
F0.9807809591293335
sg8
F0.00019564158266952017
ssS'pt:[26.0,30.0]'
p311
(dp312
g7
F0.9755328893661499
sg8
F0.0006402260287210833
ssS'pt:[60.0,120.0]'
p313
(dp314
g7
F0.9786977767944336
sg8
F0.000533175111544473
ssS'pt:[120.0,200.0]'
p315
(dp316
g7
F0.97629714012146
sg8
F0.006705951412962248
ssS'pt:[300.0,1200.0]'
p317
(dp318
g7
F0.9524137377738953
sg8
F0.0105811737746922
ssS'pt:[50.0,60.0]'
p319
(dp320
g7
F0.9803041815757751
sg8
F0.00033066953412577124
ssS'pt:[40.0,50.0]'
p321
(dp322
g7
F0.9810476303100586
sg8
F0.00014516216683459473
sssS'abseta:[1.2,2.1]'
p323
(dp324
S'pt:[200.0,300.0]'
p325
(dp326
g7
F0.9930607676506042
sg8
F0.008000815500855346
ssS'pt:[30.0,40.0]'
p327
(dp328
g7
F1.016137957572937
sg8
F0.0003863534138455122
ssS'pt:[26.0,30.0]'
p329
(dp330
g7
F1.0173287391662598
sg8
F0.001207691319191975
ssS'pt:[60.0,120.0]'
p331
(dp332
g7
F1.0071314573287964
sg8
F0.0009652936647191545
ssS'pt:[120.0,200.0]'
p333
(dp334
g7
F1.004201889038086
sg8
F0.0036289909867072002
ssS'pt:[300.0,1200.0]'
p335
(dp336
g7
F1.00035560131073
sg8
F0.017350782958317816
ssS'pt:[50.0,60.0]'
p337
(dp338
g7
F1.0099517107009888
sg8
F0.0005667949326635735
ssS'pt:[40.0,50.0]'
p339
(dp340
g7
F1.0129241943359375
sg8
F0.00025083269873003416
sssS'abseta:[2.1,2.4]'
p341
(dp342
S'pt:[200.0,300.0]'
p343
(dp344
g7
F0.9947269558906555
sg8
F0.034314719498506376
ssS'pt:[30.0,40.0]'
p345
(dp346
g7
F0.999202311038971
sg8
F0.0010120217952783279
ssS'pt:[26.0,30.0]'
p347
(dp348
g7
F0.984969973564148
sg8
F0.002910665763216051
ssS'pt:[60.0,120.0]'
p349
(dp350
g7
F1.0159474611282349
sg8
F0.0032725831012095094
ssS'pt:[120.0,200.0]'
p351
(dp352
g7
F1.0001258850097656
sg8
F0.025043561229517723
ssS'pt:[300.0,1200.0]'
p353
(dp354
g7
F0.9649938941001892
sg8
F0.09741847135195587
ssS'pt:[50.0,60.0]'
p355
(dp356
g7
F1.0048402547836304
sg8
F0.001763288844514817
ssS'pt:[40.0,50.0]'
p357
(dp358
g7
F1.0068858861923218
sg8
F0.000780663514969486
sssS'abseta:[0.9,1.2]'
p359
(dp360
S'pt:[200.0,300.0]'
p361
(dp362
g7
F0.9438655376434326
sg8
F0.009799996697864546
ssS'pt:[30.0,40.0]'
p363
(dp364
g7
F0.9749003052711487
sg8
F0.00039894142866460423
ssS'pt:[26.0,30.0]'
p365
(dp366
g7
F0.9664956331253052
sg8
F0.001622344201653404
ssS'pt:[60.0,120.0]'
p367
(dp368
g7
F0.9721834063529968
sg8
F0.0008404671258160214
ssS'pt:[120.0,200.0]'
p369
(dp370
g7
F0.9712423086166382
sg8
F0.0035130258587694487
ssS'pt:[300.0,1200.0]'
p371
(dp372
g7
F0.9384830594062805
sg8
F0.019118003059258162
ssS'pt:[50.0,60.0]'
p373
(dp374
g7
F0.9752546548843384
sg8
F0.000537300339166433
ssS'pt:[40.0,50.0]'
p375
(dp376
g7
F0.9767721891403198
sg8
F0.00025094604337341173
sssssS'IsoMu24_PtBins'
p377
(dp378
S'pt_ratio'
p379
(dp380
S'pt:[22.0,24.0]'
p381
(dp382
g7
F1.1297123432159424
sg8
F0.02264942752157761
ssS'pt:[18.0,22.0]'
p383
(dp384
g7
F1.136445164680481
sg8
F0.17893803274730555
ssS'pt:[300.0,500.0]'
p385
(dp386
g7
F0.9658796787261963
sg8
F0.010642655735685104
ssS'pt:[200.0,300.0]'
p387
(dp388
g7
F0.978614091873169
sg8
F0.003946877915854114
ssS'pt:[30.0,40.0]'
p389
(dp390
g7
F0.991169273853302
sg8
F0.00017572955622015821
ssS'pt:[26.0,30.0]'
p391
(dp392
g7
F0.9874987602233887
sg8
F0.0005795574007034299
ssS'pt:[60.0,120.0]'
p393
(dp394
g7
F0.9876329302787781
sg8
F0.0004118544477683395
ssS'pt:[120.0,200.0]'
p395
(dp396
g7
F0.9839558601379395
sg8
F0.00186323313189772
ssS'pt:[24.0,26.0]'
p397
(dp398
g7
F0.9807175397872925
sg8
F0.001145585029108334
ssS'pt:[700.0,1200.0]'
p399
(dp400
g7
F0.9545736908912659
sg8
F0.1411824449516021
ssS'pt:[2.0,18.0]'
p401
(dp402
g7
F786550.5625
sg8
F470854873325.1857
ssS'pt:[50.0,60.0]'
p403
(dp404
g7
F0.990617036819458
sg8
F0.0002816392422082894
ssS'pt:[500.0,700.0]'
p405
(dp406
g7
F0.9391130805015564
sg8
F0.026289414805551754
ssS'pt:[40.0,50.0]'
p407
(dp408
g7
F0.9921523332595825
sg8
F7.354363634272775e-05
ssssS'Mu50_OR_OldMu100_OR_TkMu100_PtEtaBins'
p409
(dp410
S'pt_abseta_ratio'
p411
(dp412
S'pt:[56.0,60.0]'
p413
(dp414
S'abseta:[0.0,0.9]'
p415
(dp416
g7
F0.9783748984336853
sg8
F0.0006484884195838833
ssS'abseta:[1.2,2.1]'
p417
(dp418
g7
F1.007654070854187
sg8
F0.0010862928415850115
ssS'abseta:[2.1,2.4]'
p419
(dp420
g7
F1.0000723600387573
sg8
F0.003645323713573782
ssS'abseta:[0.9,1.2]'
p421
(dp422
g7
F0.9720155000686646
sg8
F0.0010142199358582772
sssS'pt:[60.0,120.0]'
p423
(dp424
S'abseta:[0.0,0.9]'
p425
(dp426
g7
F0.9781587719917297
sg8
F0.000586927818183544
ssS'abseta:[1.2,2.1]'
p427
(dp428
g7
F1.0040019750595093
sg8
F0.0007949880379152976
ssS'abseta:[2.1,2.4]'
p429
(dp430
g7
F1.008907675743103
sg8
F0.002747278763283628
ssS'abseta:[0.9,1.2]'
p431
(dp432
g7
F0.9688449501991272
sg8
F0.0007800920510628453
sssS'pt:[120.0,200.0]'
p433
(dp434
S'abseta:[0.0,0.9]'
p435
(dp436
g7
F0.9779255390167236
sg8
F0.0020750301035071285
ssS'abseta:[1.2,2.1]'
p437
(dp438
g7
F1.0099095106124878
sg8
F0.004311237438748838
ssS'abseta:[2.1,2.4]'
p439
(dp440
g7
F1.0102726221084595
sg8
F0.01519331847068253
ssS'abseta:[0.9,1.2]'
p441
(dp442
g7
F0.9724202752113342
sg8
F0.002937038394640691
sssS'pt:[52.0,56.0]'
p443
(dp444
S'abseta:[0.0,0.9]'
p445
(dp446
g7
F0.9777202606201172
sg8
F0.00045167284340716173
ssS'abseta:[1.2,2.1]'
p447
(dp448
g7
F1.0061148405075073
sg8
F0.0007617317742560919
ssS'abseta:[2.1,2.4]'
p449
(dp450
g7
F0.9964824914932251
sg8
F0.0026363973191764665
ssS'abseta:[0.9,1.2]'
p451
(dp452
g7
F0.9717987775802612
sg8
F0.0007111077563312381
sssS'pt:[200.0,300.0]'
p453
(dp454
S'abseta:[0.0,0.9]'
p455
(dp456
g7
F0.9849304556846619
sg8
F0.005079231597258858
ssS'abseta:[1.2,2.1]'
p457
(dp458
g7
F0.9979005455970764
sg8
F0.007098002055371186
ssS'abseta:[2.1,2.4]'
p459
(dp460
g7
F0.9454867243766785
sg8
F0.03224000069150725
ssS'abseta:[0.9,1.2]'
p461
(dp462
g7
F0.9570285081863403
sg8
F0.008320954204069628
sssS'pt:[300.0,1200.0]'
p463
(dp464
S'abseta:[0.0,0.9]'
p465
(dp466
g7
F0.9618227481842041
sg8
F0.010898785663105637
ssS'abseta:[1.2,2.1]'
p467
(dp468
g7
F0.9928741455078125
sg8
F0.01518651352514903
ssS'abseta:[2.1,2.4]'
p469
(dp470
g7
F0.9405500888824463
sg8
F0.06972104657978431
ssS'abseta:[0.9,1.2]'
p471
(dp472
g7
F0.936240017414093
sg8
F0.025664742920011606
ssssS'abseta_pt_ratio'
p473
(dp474
S'abseta:[0.0,0.9]'
p475
(dp476
S'pt:[56.0,60.0]'
p477
(dp478
g7
F0.9783748984336853
sg8
F0.0006484884195838833
ssS'pt:[60.0,120.0]'
p479
(dp480
g7
F0.9781587719917297
sg8
F0.000586927818183544
ssS'pt:[120.0,200.0]'
p481
(dp482
g7
F0.9779255390167236
sg8
F0.0020750301035071285
ssS'pt:[52.0,56.0]'
p483
(dp484
g7
F0.9777202606201172
sg8
F0.00045167284340716173
ssS'pt:[200.0,300.0]'
p485
(dp486
g7
F0.9849304556846619
sg8
F0.005079231597258858
ssS'pt:[300.0,1200.0]'
p487
(dp488
g7
F0.9618227481842041
sg8
F0.010898785663105637
sssS'abseta:[1.2,2.1]'
p489
(dp490
S'pt:[56.0,60.0]'
p491
(dp492
g7
F1.007654070854187
sg8
F0.0010862928415850115
ssS'pt:[60.0,120.0]'
p493
(dp494
g7
F1.0040019750595093
sg8
F0.0007949880379152976
ssS'pt:[120.0,200.0]'
p495
(dp496
g7
F1.0099095106124878
sg8
F0.004311237438748838
ssS'pt:[52.0,56.0]'
p497
(dp498
g7
F1.0061148405075073
sg8
F0.0007617317742560919
ssS'pt:[200.0,300.0]'
p499
(dp500
g7
F0.9979005455970764
sg8
F0.007098002055371186
ssS'pt:[300.0,1200.0]'
p501
(dp502
g7
F0.9928741455078125
sg8
F0.01518651352514903
sssS'abseta:[2.1,2.4]'
p503
(dp504
S'pt:[56.0,60.0]'
p505
(dp506
g7
F1.0000723600387573
sg8
F0.003645323713573782
ssS'pt:[60.0,120.0]'
p507
(dp508
g7
F1.008907675743103
sg8
F0.002747278763283628
ssS'pt:[120.0,200.0]'
p509
(dp510
g7
F1.0102726221084595
sg8
F0.01519331847068253
ssS'pt:[52.0,56.0]'
p511
(dp512
g7
F0.9964824914932251
sg8
F0.0026363973191764665
ssS'pt:[200.0,300.0]'
p513
(dp514
g7
F0.9454867243766785
sg8
F0.03224000069150725
ssS'pt:[300.0,1200.0]'
p515
(dp516
g7
F0.9405500888824463
sg8
F0.06972104657978431
sssS'abseta:[0.9,1.2]'
p517
(dp518
S'pt:[56.0,60.0]'
p519
(dp520
g7
F0.9720155000686646
sg8
F0.0010142199358582772
ssS'pt:[60.0,120.0]'
p521
(dp522
g7
F0.9688449501991272
sg8
F0.0007800920510628453
ssS'pt:[120.0,200.0]'
p523
(dp524
g7
F0.9724202752113342
sg8
F0.002937038394640691
ssS'pt:[52.0,56.0]'
p525
(dp526
g7
F0.9717987775802612
sg8
F0.0007111077563312381
ssS'pt:[200.0,300.0]'
p527
(dp528
g7
F0.9570285081863403
sg8
F0.008320954204069628
ssS'pt:[300.0,1200.0]'
p529
(dp530
g7
F0.936240017414093
sg8
F0.025664742920011606
sssss.