(dp0
S'Mu50_OR_OldMu100_OR_TkMu100_PtBins'
p1
(dp2
S'pt_ratio'
p3
(dp4
S'pt:[44.0,48.0]'
p5
(dp6
S'value'
p7
F7.553469181060791
sS'error'
p8
F0.10245761578386306
ssS'pt:[700.0,1200.0]'
p9
(dp10
g7
F1.0083500146865845
sg8
F0.16089677519981097
ssS'pt:[48.0,50.0]'
p11
(dp12
g7
F3.146005630493164
sg8
F0.019655857743867033
ssS'pt:[56.0,60.0]'
p13
(dp14
g7
F0.9643447995185852
sg8
F0.0008916948333760842
ssS'pt:[60.0,120.0]'
p15
(dp16
g7
F0.9722719788551331
sg8
F0.0007773347822411071
ssS'pt:[120.0,200.0]'
p17
(dp18
g7
F0.9800987839698792
sg8
F0.006560884524424901
ssS'pt:[300.0,500.0]'
p19
(dp20
g7
F0.9735516905784607
sg8
F0.013324087136071132
ssS'pt:[52.0,56.0]'
p21
(dp22
g7
F0.9466856122016907
sg8
F0.0006772268253024725
ssS'pt:[2.0,44.0]'
p23
(dp24
g7
F7.2055511474609375
sg8
F0.2028159954939631
ssS'pt:[50.0,52.0]'
p25
(dp26
g7
F0.8233547806739807
sg8
F0.001057593840681233
ssS'pt:[200.0,300.0]'
p27
(dp28
g7
F0.974439263343811
sg8
F0.006917368460244953
ssS'pt:[500.0,700.0]'
p29
(dp30
g7
F0.9066586494445801
sg8
F0.052984808112129134
ssssS'Mu50_OR_OldMu100_OR_TkMu100_EtaBins'
p31
(dp32
S'eta_ratio'
p33
(dp34
S'eta:[-0.2,0.2]'
p35
(dp36
g7
F0.9812501668930054
sg8
F0.0008951991075075912
ssS'eta:[-2.4,-2.1]'
p37
(dp38
g7
F0.9403966665267944
sg8
F0.003796279715342885
ssS'eta:[0.3,0.9]'
p39
(dp40
g7
F0.9700567126274109
sg8
F0.0008545786662497213
ssS'eta:[-0.9,-0.3]'
p41
(dp42
g7
F0.9785141944885254
sg8
F0.0007628993737902438
ssS'eta:[0.2,0.3]'
p43
(dp44
g7
F0.9591519832611084
sg8
F0.00342484318170199
ssS'eta:[0.9,1.2]'
p45
(dp46
g7
F0.950234055519104
sg8
F0.0013267621022577897
ssS'eta:[-1.2,-0.9]'
p47
(dp48
g7
F0.9579704403877258
sg8
F0.0013365161778445247
ssS'eta:[2.1,2.4]'
p49
(dp50
g7
F0.9255697727203369
sg8
F0.0036614561574940968
ssS'eta:[-1.6,-1.2]'
p51
(dp52
g7
F0.943682074546814
sg8
F0.00146451038488766
ssS'eta:[1.2,1.6]'
p53
(dp54
g7
F0.9276590347290039
sg8
F0.0015253849790834318
ssS'eta:[-2.1,-1.6]'
p55
(dp56
g7
F0.9758569002151489
sg8
F0.00191561371625311
ssS'eta:[-0.3,-0.2]'
p57
(dp58
g7
F0.9549254775047302
sg8
F0.003190240398041901
ssS'eta:[1.6,2.1]'
p59
(dp60
g7
F0.9773529171943665
sg8
F0.0018150315251039967
ssssS'IsoMu24_EtaBins'
p61
(dp62
S'eta_ratio'
p63
(dp64
S'eta:[-0.2,0.2]'
p65
(dp66
g7
F0.982696533203125
sg8
F0.00035434830577195446
ssS'eta:[-2.4,-2.1]'
p67
(dp68
g7
F1.0128568410873413
sg8
F0.0013608987591382875
ssS'eta:[0.3,0.9]'
p69
(dp70
g7
F0.9716013073921204
sg8
F0.00033911651404538166
ssS'eta:[-0.9,-0.3]'
p71
(dp72
g7
F0.9799882173538208
sg8
F0.0003294543015377786
ssS'eta:[0.2,0.3]'
p73
(dp74
g7
F0.9599559307098389
sg8
F0.00107574529070464
ssS'eta:[0.9,1.2]'
p75
(dp76
g7
F0.9560092687606812
sg8
F0.0005474433634857154
ssS'eta:[-1.2,-0.9]'
p77
(dp78
g7
F0.9608476161956787
sg8
F0.0005438727508102248
ssS'eta:[2.1,2.4]'
p79
(dp80
g7
F0.9914278388023376
sg8
F0.0013342209634740958
ssS'eta:[-1.6,-1.2]'
p81
(dp82
g7
F0.9526621699333191
sg8
F0.000609073405765124
ssS'eta:[1.2,1.6]'
p83
(dp84
g7
F0.9411579370498657
sg8
F0.0006379119092333161
ssS'eta:[-2.1,-1.6]'
p85
(dp86
g7
F1.0000392198562622
sg8
F0.0007561246086181605
ssS'eta:[-0.3,-0.2]'
p87
(dp88
g7
F0.9612147808074951
sg8
F0.0010790384279746143
ssS'eta:[1.6,2.1]'
p89
(dp90
g7
F1.006019115447998
sg8
F0.000727548453156528
ssssS'Mu50_OR_OldMu100_OR_TkMu100_VtxBins'
p91
(dp92
S'tag_nVertices_ratio'
p93
(dp94
S'tag:[30.5,32.5]'
p95
(dp96
g7
F0.959619402885437
sg8
F0.0015971769971555685
ssS'tag:[46.5,48.5]'
p97
(dp98
g7
F0.9569465517997742
sg8
F0.0047199157285581815
ssS'tag:[28.5,30.5]'
p99
(dp100
g7
F0.9584577679634094
sg8
F0.001474170220323751
ssS'tag:[44.5,46.5]'
p101
(dp102
g7
F0.9563943147659302
sg8
F0.003985154972527718
ssS'tag:[6.5,8.5]'
p103
(dp104
g7
F0.9691599011421204
sg8
F0.005872359600936642
ssS'tag:[14.5,16.5]'
p105
(dp106
g7
F0.9662997722625732
sg8
F0.0017855694754983086
ssS'tag:[50.5,52.5]'
p107
(dp108
g7
F0.9607478380203247
sg8
F0.00897942838114355
ssS'tag:[24.5,26.5]'
p109
(dp110
g7
F0.9610700011253357
sg8
F0.0014718778719114828
ssS'tag:[34.5,36.5]'
p111
(dp112
g7
F0.9580833911895752
sg8
F0.002058151457370165
ssS'tag:[8.5,10.5]'
p113
(dp114
g7
F0.9672395586967468
sg8
F0.0036867691580541734
ssS'tag:[18.5,20.5]'
p115
(dp116
g7
F0.966231107711792
sg8
F0.0015964129996545405
ssS'tag:[16.5,18.5]'
p117
(dp118
g7
F0.9663001894950867
sg8
F0.001677626814822781
ssS'tag:[56.5,58.5]'
p119
(dp120
g7
F0.9739635586738586
sg8
F0.013229433301094605
ssS'tag:[32.5,34.5]'
p121
(dp122
g7
F0.9599510431289673
sg8
F0.0018645425851755088
ssS'tag:[48.5,50.5]'
p123
(dp124
g7
F0.9594923257827759
sg8
F0.005903752899796773
ssS'tag:[22.5,24.5]'
p125
(dp126
g7
F0.962673008441925
sg8
F0.0013753599055685525
ssS'tag:[52.5,54.5]'
p127
(dp128
g7
F0.9642638564109802
sg8
F0.009155209782850551
ssS'tag:[42.5,44.5]'
p129
(dp130
g7
F0.9589511156082153
sg8
F0.0035447317340000432
ssS'tag:[38.5,40.5]'
p131
(dp132
g7
F0.9545733332633972
sg8
F0.002423460376477135
ssS'tag:[2.5,4.5]'
p133
(dp134
g7
F0.9529197216033936
sg8
F0.01848117639249102
ssS'tag:[12.5,14.5]'
p135
(dp136
g7
F0.9661341309547424
sg8
F0.0022391191049140197
ssS'tag:[0.5,2.5]'
p137
(dp138
g7
F0.9864803552627563
sg8
F0.02692339807392198
ssS'tag:[40.5,42.5]'
p139
(dp140
g7
F0.9563680291175842
sg8
F0.002783004762252398
ssS'tag:[54.5,56.5]'
p141
(dp142
g7
F0.9493229985237122
sg8
F0.010311527626588567
ssS'tag:[20.5,22.5]'
p143
(dp144
g7
F0.9616022706031799
sg8
F0.0014494785422379027
ssS'tag:[10.5,12.5]'
p145
(dp146
g7
F0.9650311470031738
sg8
F0.00249751339457192
ssS'tag:[26.5,28.5]'
p147
(dp148
g7
F0.962273895740509
sg8
F0.0015039293461348402
ssS'tag:[58.5,60.5]'
p149
(dp150
g7
F0.9738726019859314
sg8
F0.014521101079484748
ssS'tag:[36.5,38.5]'
p151
(dp152
g7
F0.9561681747436523
sg8
F0.0020900945848419446
ssS'tag:[4.5,6.5]'
p153
(dp154
g7
F0.977106511592865
sg8
F0.010776596987928296
ssssS'IsoMu24_VtxBins'
p155
(dp156
S'tag_nVertices_ratio'
p157
(dp158
S'tag:[30.5,32.5]'
p159
(dp160
g7
F0.9699748158454895
sg8
F0.0006164926184239426
ssS'tag:[46.5,48.5]'
p161
(dp162
g7
F0.9692665338516235
sg8
F0.002024930718454837
ssS'tag:[28.5,30.5]'
p163
(dp164
g7
F0.970018208026886
sg8
F0.0005943105566297525
ssS'tag:[44.5,46.5]'
p165
(dp166
g7
F0.9676273465156555
sg8
F0.0016205581092613123
ssS'tag:[6.5,8.5]'
p167
(dp168
g7
F0.9798802137374878
sg8
F0.003370583085534334
ssS'tag:[14.5,16.5]'
p169
(dp170
g7
F0.9764160513877869
sg8
F0.0007241674264983848
ssS'tag:[50.5,52.5]'
p171
(dp172
g7
F0.9722698926925659
sg8
F0.0028572438823646117
ssS'tag:[24.5,26.5]'
p173
(dp174
g7
F0.973711371421814
sg8
F0.0005455976183437396
ssS'tag:[34.5,36.5]'
p175
(dp176
g7
F0.9696510434150696
sg8
F0.0007331191905868702
ssS'tag:[8.5,10.5]'
p177
(dp178
g7
F0.9809836149215698
sg8
F0.0014867860912042325
ssS'tag:[18.5,20.5]'
p179
(dp180
g7
F0.9751865267753601
sg8
F0.0006033254876251526
ssS'tag:[16.5,18.5]'
p181
(dp182
g7
F0.9759739637374878
sg8
F0.0006427557844732708
ssS'tag:[56.5,58.5]'
p183
(dp184
g7
F0.9596203565597534
sg8
F0.004651595574609696
ssS'tag:[32.5,34.5]'
p185
(dp186
g7
F0.9712903499603271
sg8
F0.0006862790426340915
ssS'tag:[48.5,50.5]'
p187
(dp188
g7
F0.9680010676383972
sg8
F0.0026099836513999346
ssS'tag:[22.5,24.5]'
p189
(dp190
g7
F0.9740415811538696
sg8
F0.0005535440853301077
ssS'tag:[52.5,54.5]'
p191
(dp192
g7
F0.9774089455604553
sg8
F0.0036255529524650116
ssS'tag:[42.5,44.5]'
p193
(dp194
g7
F0.9691958427429199
sg8
F0.0014458808503489166
ssS'tag:[38.5,40.5]'
p195
(dp196
g7
F0.9684549570083618
sg8
F0.0009672714581647637
ssS'tag:[2.5,4.5]'
p197
(dp198
g7
F0.9859718084335327
sg8
F0.007154807804688312
ssS'tag:[12.5,14.5]'
p199
(dp200
g7
F0.9806861877441406
sg8
F0.0008395934389578836
ssS'tag:[0.5,2.5]'
p201
(dp202
g7
F1.0224390029907227
sg8
F0.01349231818883064
ssS'tag:[40.5,42.5]'
p203
(dp204
g7
F0.9670873880386353
sg8
F0.0011512497855180924
ssS'tag:[54.5,56.5]'
p205
(dp206
g7
F0.9605958461761475
sg8
F0.005133909907684809
ssS'tag:[20.5,22.5]'
p207
(dp208
g7
F0.9746260643005371
sg8
F0.000565880607894553
ssS'tag:[10.5,12.5]'
p209
(dp210
g7
F0.9783288240432739
sg8
F0.0010758386446574238
ssS'tag:[26.5,28.5]'
p211
(dp212
g7
F0.9718334674835205
sg8
F0.0005643905007441452
ssS'tag:[58.5,60.5]'
p213
(dp214
g7
F0.9697694778442383
sg8
F0.006025864465654457
ssS'tag:[36.5,38.5]'
p215
(dp216
g7
F0.9708711504936218
sg8
F0.0008591354658010084
ssS'tag:[4.5,6.5]'
p217
(dp218
g7
F0.9798364639282227
sg8
F0.0031420714038192404
ssssS'IsoMu24_PtEtaBins'
p219
(dp220
S'pt_abseta_ratio'
p221
(dp222
S'pt:[200.0,300.0]'
p223
(dp224
S'abseta:[0.0,0.9]'
p225
(dp226
g7
F0.9618107080459595
sg8
F0.009773176203468284
ssS'abseta:[1.2,2.1]'
p227
(dp228
g7
F0.9664002060890198
sg8
F0.013544845337768405
ssS'abseta:[2.1,2.4]'
p229
(dp230
g7
F1.0520998239517212
sg8
F0.060249727567463836
ssS'abseta:[0.9,1.2]'
p231
(dp232
g7
F0.9241194128990173
sg8
F0.015169083903528799
sssS'pt:[30.0,40.0]'
p233
(dp234
S'abseta:[0.0,0.9]'
p235
(dp236
g7
F0.975592315196991
sg8
F0.00031872621144061623
ssS'abseta:[1.2,2.1]'
p237
(dp238
g7
F0.9729108214378357
sg8
F0.0005944767156764873
ssS'abseta:[2.1,2.4]'
p239
(dp240
g7
F0.9956144094467163
sg8
F0.0015296210351467183
ssS'abseta:[0.9,1.2]'
p241
(dp242
g7
F0.9566571712493896
sg8
F0.0006708285943719556
sssS'pt:[26.0,30.0]'
p243
(dp244
S'abseta:[0.0,0.9]'
p245
(dp246
g7
F0.9698455929756165
sg8
F0.0010120757292996
ssS'abseta:[1.2,2.1]'
p247
(dp248
g7
F0.968589186668396
sg8
F0.0018701847960642965
ssS'abseta:[2.1,2.4]'
p249
(dp250
g7
F0.9627935886383057
sg8
F0.004382902498295945
ssS'abseta:[0.9,1.2]'
p251
(dp252
g7
F0.9473601579666138
sg8
F0.0026605589393644997
sssS'pt:[60.0,120.0]'
p253
(dp254
S'abseta:[0.0,0.9]'
p255
(dp256
g7
F0.9751762747764587
sg8
F0.0007756378280095542
ssS'abseta:[1.2,2.1]'
p257
(dp258
g7
F0.9760234951972961
sg8
F0.0015792332041304968
ssS'abseta:[2.1,2.4]'
p259
(dp260
g7
F1.0227495431900024
sg8
F0.00440261244408997
ssS'abseta:[0.9,1.2]'
p261
(dp262
g7
F0.9579103589057922
sg8
F0.0014809662707288677
sssS'pt:[120.0,200.0]'
p263
(dp264
S'abseta:[0.0,0.9]'
p265
(dp266
g7
F0.9631842374801636
sg8
F0.007316778130414942
ssS'abseta:[1.2,2.1]'
p267
(dp268
g7
F0.9758266806602478
sg8
F0.005378610626394391
ssS'abseta:[2.1,2.4]'
p269
(dp270
g7
F0.9898489713668823
sg8
F0.020848792719231315
ssS'abseta:[0.9,1.2]'
p271
(dp272
g7
F0.9551054835319519
sg8
F0.005692228714507397
sssS'pt:[300.0,1200.0]'
p273
(dp274
S'abseta:[0.0,0.9]'
p275
(dp276
g7
F0.9548403024673462
sg8
F0.016451181688483828
ssS'abseta:[1.2,2.1]'
p277
(dp278
g7
F0.9373623132705688
sg8
F0.04598159411753204
ssS'abseta:[2.1,2.4]'
p279
(dp280
g7
F1.0252991914749146
sg8
F0.13944500536299353
ssS'abseta:[0.9,1.2]'
p281
(dp282
g7
F0.9619218111038208
sg8
F0.03259915768284723
sssS'pt:[50.0,60.0]'
p283
(dp284
S'abseta:[0.0,0.9]'
p285
(dp286
g7
F0.9760636687278748
sg8
F0.0005508165687868658
ssS'abseta:[1.2,2.1]'
p287
(dp288
g7
F0.9756057262420654
sg8
F0.0008655240854720868
ssS'abseta:[2.1,2.4]'
p289
(dp290
g7
F1.0090028047561646
sg8
F0.0025268757242192814
ssS'abseta:[0.9,1.2]'
p291
(dp292
g7
F0.9599884152412415
sg8
F0.0009307770260844335
sssS'pt:[40.0,50.0]'
p293
(dp294
S'abseta:[0.0,0.9]'
p295
(dp296
g7
F0.976597249507904
sg8
F0.00023558002679306228
ssS'abseta:[1.2,2.1]'
p297
(dp298
g7
F0.9738205671310425
sg8
F0.00039546840102962016
ssS'abseta:[2.1,2.4]'
p299
(dp300
g7
F1.0102187395095825
sg8
F0.0011657069729020927
ssS'abseta:[0.9,1.2]'
p301
(dp302
g7
F0.9598886966705322
sg8
F0.0004398361111910652
ssssS'abseta_pt_ratio'
p303
(dp304
S'abseta:[0.0,0.9]'
p305
(dp306
S'pt:[200.0,300.0]'
p307
(dp308
g7
F0.9618107080459595
sg8
F0.009773176203468284
ssS'pt:[30.0,40.0]'
p309
(dp310
g7
F0.975592315196991
sg8
F0.00031872621144061623
ssS'pt:[26.0,30.0]'
p311
(dp312
g7
F0.9698455929756165
sg8
F0.0010120757292996
ssS'pt:[60.0,120.0]'
p313
(dp314
g7
F0.9751762747764587
sg8
F0.0007756378280095542
ssS'pt:[120.0,200.0]'
p315
(dp316
g7
F0.9631842374801636
sg8
F0.007316778130414942
ssS'pt:[300.0,1200.0]'
p317
(dp318
g7
F0.9548403024673462
sg8
F0.016451181688483828
ssS'pt:[50.0,60.0]'
p319
(dp320
g7
F0.9760636687278748
sg8
F0.0005508165687868658
ssS'pt:[40.0,50.0]'
p321
(dp322
g7
F0.976597249507904
sg8
F0.00023558002679306228
sssS'abseta:[1.2,2.1]'
p323
(dp324
S'pt:[200.0,300.0]'
p325
(dp326
g7
F0.9664002060890198
sg8
F0.013544845337768405
ssS'pt:[30.0,40.0]'
p327
(dp328
g7
F0.9729108214378357
sg8
F0.0005944767156764873
ssS'pt:[26.0,30.0]'
p329
(dp330
g7
F0.968589186668396
sg8
F0.0018701847960642965
ssS'pt:[60.0,120.0]'
p331
(dp332
g7
F0.9760234951972961
sg8
F0.0015792332041304968
ssS'pt:[120.0,200.0]'
p333
(dp334
g7
F0.9758266806602478
sg8
F0.005378610626394391
ssS'pt:[300.0,1200.0]'
p335
(dp336
g7
F0.9373623132705688
sg8
F0.04598159411753204
ssS'pt:[50.0,60.0]'
p337
(dp338
g7
F0.9756057262420654
sg8
F0.0008655240854720868
ssS'pt:[40.0,50.0]'
p339
(dp340
g7
F0.9738205671310425
sg8
F0.00039546840102962016
sssS'abseta:[2.1,2.4]'
p341
(dp342
S'pt:[200.0,300.0]'
p343
(dp344
g7
F1.0520998239517212
sg8
F0.060249727567463836
ssS'pt:[30.0,40.0]'
p345
(dp346
g7
F0.9956144094467163
sg8
F0.0015296210351467183
ssS'pt:[26.0,30.0]'
p347
(dp348
g7
F0.9627935886383057
sg8
F0.004382902498295945
ssS'pt:[60.0,120.0]'
p349
(dp350
g7
F1.0227495431900024
sg8
F0.00440261244408997
ssS'pt:[120.0,200.0]'
p351
(dp352
g7
F0.9898489713668823
sg8
F0.020848792719231315
ssS'pt:[300.0,1200.0]'
p353
(dp354
g7
F1.0252991914749146
sg8
F0.13944500536299353
ssS'pt:[50.0,60.0]'
p355
(dp356
g7
F1.0090028047561646
sg8
F0.0025268757242192814
ssS'pt:[40.0,50.0]'
p357
(dp358
g7
F1.0102187395095825
sg8
F0.0011657069729020927
sssS'abseta:[0.9,1.2]'
p359
(dp360
S'pt:[200.0,300.0]'
p361
(dp362
g7
F0.9241194128990173
sg8
F0.015169083903528799
ssS'pt:[30.0,40.0]'
p363
(dp364
g7
F0.9566571712493896
sg8
F0.0006708285943719556
ssS'pt:[26.0,30.0]'
p365
(dp366
g7
F0.9473601579666138
sg8
F0.0026605589393644997
ssS'pt:[60.0,120.0]'
p367
(dp368
g7
F0.9579103589057922
sg8
F0.0014809662707288677
ssS'pt:[120.0,200.0]'
p369
(dp370
g7
F0.9551054835319519
sg8
F0.005692228714507397
ssS'pt:[300.0,1200.0]'
p371
(dp372
g7
F0.9619218111038208
sg8
F0.03259915768284723
ssS'pt:[50.0,60.0]'
p373
(dp374
g7
F0.9599884152412415
sg8
F0.0009307770260844335
ssS'pt:[40.0,50.0]'
p375
(dp376
g7
F0.9598886966705322
sg8
F0.0004398361111910652
sssssS'IsoMu24_PtBins'
p377
(dp378
S'pt_ratio'
p379
(dp380
S'pt:[22.0,24.0]'
p381
(dp382
g7
F2.302414655685425
sg8
F0.0535842532010239
ssS'pt:[18.0,22.0]'
p383
(dp384
g7
F3.925374746322632
sg8
F0.6450044091739324
ssS'pt:[300.0,500.0]'
p385
(dp386
g7
F0.9588667154312134
sg8
F0.013832913366000068
ssS'pt:[200.0,300.0]'
p387
(dp388
g7
F0.9596779346466064
sg8
F0.007235364336813376
ssS'pt:[30.0,40.0]'
p389
(dp390
g7
F0.9728277325630188
sg8
F0.00027899525128267585
ssS'pt:[26.0,30.0]'
p391
(dp392
g7
F0.9651920199394226
sg8
F0.0009068198942804095
ssS'pt:[60.0,120.0]'
p393
(dp394
g7
F0.9739181399345398
sg8
F0.0006937431515618043
ssS'pt:[120.0,200.0]'
p395
(dp396
g7
F0.9686936736106873
sg8
F0.0028586046185027267
ssS'pt:[24.0,26.0]'
p397
(dp398
g7
F0.909139096736908
sg8
F0.0018994614949283523
ssS'pt:[700.0,1200.0]'
p399
(dp400
g7
F1.121712327003479
sg8
F0.17379484842738624
ssS'pt:[2.0,18.0]'
p401
(dp402
g7
F1596114432.0
sg8
F6.641861733603028e+16
ssS'pt:[50.0,60.0]'
p403
(dp404
g7
F0.9754810929298401
sg8
F0.0004414725344668283
ssS'pt:[500.0,700.0]'
p405
(dp406
g7
F0.8511354327201843
sg8
F0.05789005488913219
ssS'pt:[40.0,50.0]'
p407
(dp408
g7
F0.9750906229019165
sg8
F0.00019650972533126235
ssssS'Mu50_OR_OldMu100_OR_TkMu100_PtEtaBins'
p409
(dp410
S'pt_abseta_ratio'
p411
(dp412
S'pt:[56.0,60.0]'
p413
(dp414
S'abseta:[0.0,0.9]'
p415
(dp416
g7
F0.9754047393798828
sg8
F0.0010612572164018714
ssS'abseta:[1.2,2.1]'
p417
(dp418
g7
F0.9586570262908936
sg8
F0.0018093632118872736
ssS'abseta:[2.1,2.4]'
p419
(dp420
g7
F0.9392232894897461
sg8
F0.005626567656966793
ssS'abseta:[0.9,1.2]'
p421
(dp422
g7
F0.955184817314148
sg8
F0.0018850033362236658
sssS'pt:[60.0,120.0]'
p423
(dp424
S'abseta:[0.0,0.9]'
p425
(dp426
g7
F0.97603440284729
sg8
F0.0007892283088512151
ssS'abseta:[1.2,2.1]'
p427
(dp428
g7
F0.972029447555542
sg8
F0.001293369184660823
ssS'abseta:[2.1,2.4]'
p429
(dp430
g7
F0.9945183992385864
sg8
F0.004299392577517116
ssS'abseta:[0.9,1.2]'
p431
(dp432
g7
F0.9559249877929688
sg8
F0.0016174694456493014
sssS'pt:[120.0,200.0]'
p433
(dp434
S'abseta:[0.0,0.9]'
p435
(dp436
g7
F0.9723413586616516
sg8
F0.004275734883372312
ssS'abseta:[1.2,2.1]'
p437
(dp438
g7
F1.0008764266967773
sg8
F0.005226604729646838
ssS'abseta:[2.1,2.4]'
p439
(dp440
g7
F0.9988738894462585
sg8
F0.019012518199503146
ssS'abseta:[0.9,1.2]'
p441
(dp442
g7
F0.9703147411346436
sg8
F0.0049541074926030175
sssS'pt:[52.0,56.0]'
p443
(dp444
S'abseta:[0.0,0.9]'
p445
(dp446
g7
F0.9719552397727966
sg8
F0.0007687727929495992
ssS'abseta:[1.2,2.1]'
p447
(dp448
g7
F0.9287911057472229
sg8
F0.0013373303957795602
ssS'abseta:[2.1,2.4]'
p449
(dp450
g7
F0.8518246412277222
sg8
F0.004239345989901938
ssS'abseta:[0.9,1.2]'
p451
(dp452
g7
F0.9496673941612244
sg8
F0.0013967398353934236
sssS'pt:[200.0,300.0]'
p453
(dp454
S'abseta:[0.0,0.9]'
p455
(dp456
g7
F0.9774544835090637
sg8
F0.008630919668192695
ssS'abseta:[1.2,2.1]'
p457
(dp458
g7
F0.9897539019584656
sg8
F0.012579714800476545
ssS'abseta:[2.1,2.4]'
p459
(dp460
g7
F0.9882077574729919
sg8
F0.041840389675511826
ssS'abseta:[0.9,1.2]'
p461
(dp462
g7
F0.9324970245361328
sg8
F0.015219110860167527
sssS'pt:[300.0,1200.0]'
p463
(dp464
S'abseta:[0.0,0.9]'
p465
(dp466
g7
F0.9655165672302246
sg8
F0.016329908314898046
ssS'abseta:[1.2,2.1]'
p467
(dp468
g7
F0.9853987693786621
sg8
F0.02683358235162388
ssS'abseta:[2.1,2.4]'
p469
(dp470
g7
F0.910197377204895
sg8
F0.15314475826545706
ssS'abseta:[0.9,1.2]'
p471
(dp472
g7
F0.949926495552063
sg8
F0.0325701804860575
ssssS'abseta_pt_ratio'
p473
(dp474
S'abseta:[0.0,0.9]'
p475
(dp476
S'pt:[56.0,60.0]'
p477
(dp478
g7
F0.9754047393798828
sg8
F0.0010612572164018714
ssS'pt:[60.0,120.0]'
p479
(dp480
g7
F0.97603440284729
sg8
F0.0007892283088512151
ssS'pt:[120.0,200.0]'
p481
(dp482
g7
F0.9723413586616516
sg8
F0.004275734883372312
ssS'pt:[52.0,56.0]'
p483
(dp484
g7
F0.9719552397727966
sg8
F0.0007687727929495992
ssS'pt:[200.0,300.0]'
p485
(dp486
g7
F0.9774544835090637
sg8
F0.008630919668192695
ssS'pt:[300.0,1200.0]'
p487
(dp488
g7
F0.9655165672302246
sg8
F0.016329908314898046
sssS'abseta:[1.2,2.1]'
p489
(dp490
S'pt:[56.0,60.0]'
p491
(dp492
g7
F0.9586570262908936
sg8
F0.0018093632118872736
ssS'pt:[60.0,120.0]'
p493
(dp494
g7
F0.972029447555542
sg8
F0.001293369184660823
ssS'pt:[120.0,200.0]'
p495
(dp496
g7
F1.0008764266967773
sg8
F0.005226604729646838
ssS'pt:[52.0,56.0]'
p497
(dp498
g7
F0.9287911057472229
sg8
F0.0013373303957795602
ssS'pt:[200.0,300.0]'
p499
(dp500
g7
F0.9897539019584656
sg8
F0.012579714800476545
ssS'pt:[300.0,1200.0]'
p501
(dp502
g7
F0.9853987693786621
sg8
F0.02683358235162388
sssS'abseta:[2.1,2.4]'
p503
(dp504
S'pt:[56.0,60.0]'
p505
(dp506
g7
F0.9392232894897461
sg8
F0.005626567656966793
ssS'pt:[60.0,120.0]'
p507
(dp508
g7
F0.9945183992385864
sg8
F0.004299392577517116
ssS'pt:[120.0,200.0]'
p509
(dp510
g7
F0.9988738894462585
sg8
F0.019012518199503146
ssS'pt:[52.0,56.0]'
p511
(dp512
g7
F0.8518246412277222
sg8
F0.004239345989901938
ssS'pt:[200.0,300.0]'
p513
(dp514
g7
F0.9882077574729919
sg8
F0.041840389675511826
ssS'pt:[300.0,1200.0]'
p515
(dp516
g7
F0.910197377204895
sg8
F0.15314475826545706
sssS'abseta:[0.9,1.2]'
p517
(dp518
S'pt:[56.0,60.0]'
p519
(dp520
g7
F0.955184817314148
sg8
F0.0018850033362236658
ssS'pt:[60.0,120.0]'
p521
(dp522
g7
F0.9559249877929688
sg8
F0.0016174694456493014
ssS'pt:[120.0,200.0]'
p523
(dp524
g7
F0.9703147411346436
sg8
F0.0049541074926030175
ssS'pt:[52.0,56.0]'
p525
(dp526
g7
F0.9496673941612244
sg8
F0.0013967398353934236
ssS'pt:[200.0,300.0]'
p527
(dp528
g7
F0.9324970245361328
sg8
F0.015219110860167527
ssS'pt:[300.0,1200.0]'
p529
(dp530
g7
F0.949926495552063
sg8
F0.0325701804860575
sssss.